Archive member included to satisfy reference by file (symbol)

/usr/local/cuda/bin/../targets/x86_64-linux/lib/libcudart_static.a(cudart_static.o)
                              asyncAPI.o (cudaGetDeviceProperties_v2)
/usr/lib/x86_64-linux-gnu/libc_nonshared.a(atexit.oS)
                              asyncAPI.o (atexit)

Merging program properties

Removed property 0xc0000002 to merge /usr/lib/gcc/x86_64-linux-gnu/11/../../../x86_64-linux-gnu/Scrt1.o (0x3) and /usr/local/cuda/bin/../targets/x86_64-linux/lib/libcudart_static.a(cudart_static.o) (not found)
Removed property 0xc0000002 to merge /usr/lib/gcc/x86_64-linux-gnu/11/../../../x86_64-linux-gnu/Scrt1.o (not found) and /usr/lib/x86_64-linux-gnu/libc_nonshared.a(atexit.oS) (0x3)
Removed property 0xc0000002 to merge /usr/lib/gcc/x86_64-linux-gnu/11/../../../x86_64-linux-gnu/Scrt1.o (not found) and /usr/lib/gcc/x86_64-linux-gnu/11/crtendS.o (0x3)
Removed property 0xc0000002 to merge /usr/lib/gcc/x86_64-linux-gnu/11/../../../x86_64-linux-gnu/Scrt1.o (not found) and /usr/lib/gcc/x86_64-linux-gnu/11/../../../x86_64-linux-gnu/crtn.o (0x3)

As-needed library included to satisfy reference by file (symbol)

libstdc++.so.6                asyncAPI.o (std::ios_base::Init::~Init()@@GLIBCXX_3.4)
libc.so.6                     /usr/local/cuda/bin/../targets/x86_64-linux/lib/libcudart_static.a(cudart_static.o) (pthread_rwlock_timedwrlock@@GLIBC_2.34)
ld-linux-x86-64.so.2          /usr/local/cuda/bin/../targets/x86_64-linux/lib/libcudart_static.a(cudart_static.o) (__tls_get_addr@@GLIBC_2.3)

Discarded input sections

 .note.GNU-stack
                0x0000000000000000        0x0 /usr/lib/gcc/x86_64-linux-gnu/11/../../../x86_64-linux-gnu/Scrt1.o
 .note.gnu.property
                0x0000000000000000       0x20 /usr/lib/gcc/x86_64-linux-gnu/11/../../../x86_64-linux-gnu/crti.o
 .note.GNU-stack
                0x0000000000000000        0x0 /usr/lib/gcc/x86_64-linux-gnu/11/../../../x86_64-linux-gnu/crti.o
 .note.GNU-stack
                0x0000000000000000        0x0 /usr/lib/gcc/x86_64-linux-gnu/11/crtbeginS.o
 .note.gnu.property
                0x0000000000000000       0x20 /usr/lib/gcc/x86_64-linux-gnu/11/crtbeginS.o
 .note.GNU-stack
                0x0000000000000000        0x0 /tmp/tmpxft_0000b254_00000000-7_asyncAPI_dlink.o
 .note.gnu.property
                0x0000000000000000       0x20 /tmp/tmpxft_0000b254_00000000-7_asyncAPI_dlink.o
 .group         0x0000000000000000        0x8 asyncAPI.o
 .group         0x0000000000000000        0xc asyncAPI.o
 .group         0x0000000000000000        0xc asyncAPI.o
 .group         0x0000000000000000        0xc asyncAPI.o
 .group         0x0000000000000000        0xc asyncAPI.o
 .group         0x0000000000000000        0xc asyncAPI.o
 .group         0x0000000000000000        0xc asyncAPI.o
 .group         0x0000000000000000        0xc asyncAPI.o
 .group         0x0000000000000000        0xc asyncAPI.o
 .group         0x0000000000000000        0xc asyncAPI.o
 .group         0x0000000000000000       0x14 asyncAPI.o
 .group         0x0000000000000000        0xc asyncAPI.o
 .group         0x0000000000000000       0x14 asyncAPI.o
 .group         0x0000000000000000        0xc asyncAPI.o
 .group         0x0000000000000000        0xc asyncAPI.o
 .group         0x0000000000000000        0xc asyncAPI.o
 .group         0x0000000000000000        0xc asyncAPI.o
 .group         0x0000000000000000        0x8 asyncAPI.o
 .group         0x0000000000000000        0xc asyncAPI.o
 .group         0x0000000000000000        0xc asyncAPI.o
 .group         0x0000000000000000        0x8 asyncAPI.o
 .group         0x0000000000000000        0x8 asyncAPI.o
 .group         0x0000000000000000        0x8 asyncAPI.o
 .group         0x0000000000000000        0xc asyncAPI.o
 .group         0x0000000000000000        0xc asyncAPI.o
 .group         0x0000000000000000        0xc asyncAPI.o
 .group         0x0000000000000000        0xc asyncAPI.o
 .group         0x0000000000000000        0xc asyncAPI.o
 .group         0x0000000000000000        0x8 asyncAPI.o
 .group         0x0000000000000000        0xc asyncAPI.o
 .group         0x0000000000000000        0x8 asyncAPI.o
 .note.GNU-stack
                0x0000000000000000        0x0 asyncAPI.o
 .note.gnu.property
                0x0000000000000000       0x20 asyncAPI.o
 .group         0x0000000000000000        0x8 /usr/local/cuda/bin/../targets/x86_64-linux/lib/libcudart_static.a(cudart_static.o)
 .group         0x0000000000000000        0x8 /usr/local/cuda/bin/../targets/x86_64-linux/lib/libcudart_static.a(cudart_static.o)
 .group         0x0000000000000000        0x8 /usr/local/cuda/bin/../targets/x86_64-linux/lib/libcudart_static.a(cudart_static.o)
 .group         0x0000000000000000        0x8 /usr/local/cuda/bin/../targets/x86_64-linux/lib/libcudart_static.a(cudart_static.o)
 .group         0x0000000000000000        0x8 /usr/local/cuda/bin/../targets/x86_64-linux/lib/libcudart_static.a(cudart_static.o)
 .group         0x0000000000000000        0x8 /usr/local/cuda/bin/../targets/x86_64-linux/lib/libcudart_static.a(cudart_static.o)
 .group         0x0000000000000000        0x8 /usr/local/cuda/bin/../targets/x86_64-linux/lib/libcudart_static.a(cudart_static.o)
 .group         0x0000000000000000        0x8 /usr/local/cuda/bin/../targets/x86_64-linux/lib/libcudart_static.a(cudart_static.o)
 .group         0x0000000000000000        0x8 /usr/local/cuda/bin/../targets/x86_64-linux/lib/libcudart_static.a(cudart_static.o)
 .group         0x0000000000000000        0x8 /usr/local/cuda/bin/../targets/x86_64-linux/lib/libcudart_static.a(cudart_static.o)
 .note.GNU-stack
                0x0000000000000000        0x0 /usr/local/cuda/bin/../targets/x86_64-linux/lib/libcudart_static.a(cudart_static.o)
 .note.GNU-stack
                0x0000000000000000        0x0 /usr/lib/x86_64-linux-gnu/libc_nonshared.a(atexit.oS)
 .note.gnu.property
                0x0000000000000000       0x20 /usr/lib/x86_64-linux-gnu/libc_nonshared.a(atexit.oS)
 .note.GNU-stack
                0x0000000000000000        0x0 /usr/lib/gcc/x86_64-linux-gnu/11/crtendS.o
 .note.gnu.property
                0x0000000000000000       0x20 /usr/lib/gcc/x86_64-linux-gnu/11/crtendS.o
 .note.gnu.property
                0x0000000000000000       0x20 /usr/lib/gcc/x86_64-linux-gnu/11/../../../x86_64-linux-gnu/crtn.o
 .note.GNU-stack
                0x0000000000000000        0x0 /usr/lib/gcc/x86_64-linux-gnu/11/../../../x86_64-linux-gnu/crtn.o

Memory Configuration

Name             Origin             Length             Attributes
*default*        0x0000000000000000 0xffffffffffffffff

Linker script and memory map

LOAD /usr/lib/gcc/x86_64-linux-gnu/11/../../../x86_64-linux-gnu/Scrt1.o
LOAD /usr/lib/gcc/x86_64-linux-gnu/11/../../../x86_64-linux-gnu/crti.o
LOAD /usr/lib/gcc/x86_64-linux-gnu/11/crtbeginS.o
START GROUP
LOAD /tmp/tmpxft_0000b254_00000000-7_asyncAPI_dlink.o
LOAD asyncAPI.o
LOAD /usr/local/cuda/bin/../targets/x86_64-linux/lib/libcudadevrt.a
LOAD /usr/local/cuda/bin/../targets/x86_64-linux/lib/libcudart_static.a
LOAD /usr/lib/gcc/x86_64-linux-gnu/11/../../../x86_64-linux-gnu/librt.a
LOAD /usr/lib/gcc/x86_64-linux-gnu/11/../../../x86_64-linux-gnu/libpthread.a
LOAD /usr/lib/gcc/x86_64-linux-gnu/11/../../../x86_64-linux-gnu/libdl.a
END GROUP
LOAD /usr/lib/gcc/x86_64-linux-gnu/11/libstdc++.so
LOAD /usr/lib/gcc/x86_64-linux-gnu/11/../../../x86_64-linux-gnu/libm.so
START GROUP
LOAD /lib/x86_64-linux-gnu/libm.so.6
LOAD /lib/x86_64-linux-gnu/libmvec.so.1
END GROUP
LOAD /usr/lib/gcc/x86_64-linux-gnu/11/libgcc_s.so
START GROUP
LOAD /usr/lib/gcc/x86_64-linux-gnu/11/../../../x86_64-linux-gnu/libgcc_s.so.1
LOAD /usr/lib/gcc/x86_64-linux-gnu/11/libgcc.a
END GROUP
LOAD /usr/lib/gcc/x86_64-linux-gnu/11/libgcc.a
LOAD /usr/lib/gcc/x86_64-linux-gnu/11/../../../x86_64-linux-gnu/libc.so
START GROUP
LOAD /lib/x86_64-linux-gnu/libc.so.6
LOAD /usr/lib/x86_64-linux-gnu/libc_nonshared.a
LOAD /lib64/ld-linux-x86-64.so.2
END GROUP
LOAD /usr/lib/gcc/x86_64-linux-gnu/11/libgcc_s.so
START GROUP
LOAD /usr/lib/gcc/x86_64-linux-gnu/11/../../../x86_64-linux-gnu/libgcc_s.so.1
LOAD /usr/lib/gcc/x86_64-linux-gnu/11/libgcc.a
END GROUP
LOAD /usr/lib/gcc/x86_64-linux-gnu/11/libgcc.a
LOAD /usr/lib/gcc/x86_64-linux-gnu/11/crtendS.o
LOAD /usr/lib/gcc/x86_64-linux-gnu/11/../../../x86_64-linux-gnu/crtn.o
                [!provide]                        PROVIDE (__executable_start = SEGMENT_START ("text-segment", 0x0))
                0x0000000000000350                . = (SEGMENT_START ("text-segment", 0x0) + SIZEOF_HEADERS)

.interp         0x0000000000000350       0x1c
 *(.interp)
 .interp        0x0000000000000350       0x1c /usr/lib/gcc/x86_64-linux-gnu/11/../../../x86_64-linux-gnu/Scrt1.o

.note.gnu.property
                0x0000000000000370       0x20
 .note.gnu.property
                0x0000000000000370       0x20 /usr/lib/gcc/x86_64-linux-gnu/11/../../../x86_64-linux-gnu/Scrt1.o

.note.gnu.build-id
                0x0000000000000390       0x24
 *(.note.gnu.build-id)
 .note.gnu.build-id
                0x0000000000000390       0x24 /usr/lib/gcc/x86_64-linux-gnu/11/../../../x86_64-linux-gnu/Scrt1.o

.note.ABI-tag   0x00000000000003b4       0x20
 .note.ABI-tag  0x00000000000003b4       0x20 /usr/lib/gcc/x86_64-linux-gnu/11/../../../x86_64-linux-gnu/Scrt1.o

.hash
 *(.hash)

.gnu.hash       0x00000000000003d8       0x28
 *(.gnu.hash)
 .gnu.hash      0x00000000000003d8       0x28 /usr/lib/gcc/x86_64-linux-gnu/11/../../../x86_64-linux-gnu/Scrt1.o

.dynsym         0x0000000000000400     0x1020
 *(.dynsym)
 .dynsym        0x0000000000000400     0x1020 /usr/lib/gcc/x86_64-linux-gnu/11/../../../x86_64-linux-gnu/Scrt1.o

.dynstr         0x0000000000001420      0x867
 *(.dynstr)
 .dynstr        0x0000000000001420      0x867 /usr/lib/gcc/x86_64-linux-gnu/11/../../../x86_64-linux-gnu/Scrt1.o

.gnu.version    0x0000000000001c88      0x158
 *(.gnu.version)
 .gnu.version   0x0000000000001c88      0x158 /usr/lib/gcc/x86_64-linux-gnu/11/../../../x86_64-linux-gnu/Scrt1.o

.gnu.version_d  0x0000000000001de0        0x0
 *(.gnu.version_d)
 .gnu.version_d
                0x0000000000001de0        0x0 /usr/lib/gcc/x86_64-linux-gnu/11/../../../x86_64-linux-gnu/Scrt1.o

.gnu.version_r  0x0000000000001de0       0xe0
 *(.gnu.version_r)
 .gnu.version_r
                0x0000000000001de0       0xe0 /usr/lib/gcc/x86_64-linux-gnu/11/../../../x86_64-linux-gnu/Scrt1.o

.rela.dyn       0x0000000000001ec0     0x6f00
 *(.rela.init)
 *(.rela.text .rela.text.* .rela.gnu.linkonce.t.*)
 .rela.text._Z13gpuDeviceIniti
                0x0000000000001ec0        0x0 /usr/lib/gcc/x86_64-linux-gnu/11/../../../x86_64-linux-gnu/Scrt1.o
 .rela.text._Z23gpuGetMaxGflopsDeviceIdv
                0x0000000000001ec0        0x0 /usr/lib/gcc/x86_64-linux-gnu/11/../../../x86_64-linux-gnu/Scrt1.o
 .rela.text._ZN18StopWatchInterfaceC2Ev
                0x0000000000001ec0        0x0 /usr/lib/gcc/x86_64-linux-gnu/11/../../../x86_64-linux-gnu/Scrt1.o
 .rela.text._ZN18StopWatchInterfaceD2Ev
                0x0000000000001ec0        0x0 /usr/lib/gcc/x86_64-linux-gnu/11/../../../x86_64-linux-gnu/Scrt1.o
 .rela.text._ZN14StopWatchLinuxC2Ev
                0x0000000000001ec0        0x0 /usr/lib/gcc/x86_64-linux-gnu/11/../../../x86_64-linux-gnu/Scrt1.o
 .rela.text._ZN14StopWatchLinuxD2Ev
                0x0000000000001ec0        0x0 /usr/lib/gcc/x86_64-linux-gnu/11/../../../x86_64-linux-gnu/Scrt1.o
 .rela.text._Z5checkI9cudaErrorEvT_PKcS3_i
                0x0000000000001ec0        0x0 /usr/lib/gcc/x86_64-linux-gnu/11/../../../x86_64-linux-gnu/Scrt1.o
 .rela.text     0x0000000000001ec0        0x0 /usr/lib/gcc/x86_64-linux-gnu/11/../../../x86_64-linux-gnu/Scrt1.o
 .rela.text.startup
                0x0000000000001ec0        0x0 /usr/lib/gcc/x86_64-linux-gnu/11/../../../x86_64-linux-gnu/Scrt1.o
 *(.rela.fini)
 *(.rela.rodata .rela.rodata.* .rela.gnu.linkonce.r.*)
 *(.rela.data .rela.data.* .rela.gnu.linkonce.d.*)
 .rela.data.rel.ro
                0x0000000000001ec0       0x90 /usr/lib/gcc/x86_64-linux-gnu/11/../../../x86_64-linux-gnu/Scrt1.o
 .rela.data.rel.local
                0x0000000000001f50       0x48 /usr/lib/gcc/x86_64-linux-gnu/11/../../../x86_64-linux-gnu/Scrt1.o
 .rela.data     0x0000000000001f98      0x1c8 /usr/lib/gcc/x86_64-linux-gnu/11/../../../x86_64-linux-gnu/Scrt1.o
 .rela.data.rel.ro.local._ZTV14StopWatchLinux
                0x0000000000002160       0xc0 /usr/lib/gcc/x86_64-linux-gnu/11/../../../x86_64-linux-gnu/Scrt1.o
 .rela.data.rel.ro._ZTV18StopWatchInterface
                0x0000000000002220       0x90 /usr/lib/gcc/x86_64-linux-gnu/11/../../../x86_64-linux-gnu/Scrt1.o
 .rela.data.rel.ro._ZTI14StopWatchLinux
                0x00000000000022b0       0x48 /usr/lib/gcc/x86_64-linux-gnu/11/../../../x86_64-linux-gnu/Scrt1.o
 .rela.data.rel.ro._ZTI18StopWatchInterface
                0x00000000000022f8       0x30 /usr/lib/gcc/x86_64-linux-gnu/11/../../../x86_64-linux-gnu/Scrt1.o
 .rela.data.rel.ro.local
                0x0000000000002328     0x6900 /usr/lib/gcc/x86_64-linux-gnu/11/../../../x86_64-linux-gnu/Scrt1.o
 *(.rela.tdata .rela.tdata.* .rela.gnu.linkonce.td.*)
 *(.rela.tbss .rela.tbss.* .rela.gnu.linkonce.tb.*)
 *(.rela.ctors)
 *(.rela.dtors)
 *(.rela.got)
 .rela.got      0x0000000000008c28       0x90 /usr/lib/gcc/x86_64-linux-gnu/11/../../../x86_64-linux-gnu/Scrt1.o
 *(.rela.bss .rela.bss.* .rela.gnu.linkonce.b.*)
 .rela.bss      0x0000000000008cb8       0x18 /usr/lib/gcc/x86_64-linux-gnu/11/../../../x86_64-linux-gnu/Scrt1.o
 *(.rela.ldata .rela.ldata.* .rela.gnu.linkonce.l.*)
 *(.rela.lbss .rela.lbss.* .rela.gnu.linkonce.lb.*)
 *(.rela.lrodata .rela.lrodata.* .rela.gnu.linkonce.lr.*)
 *(.rela.ifunc)
 .rela.ifunc    0x0000000000008cd0        0x0 /usr/lib/gcc/x86_64-linux-gnu/11/../../../x86_64-linux-gnu/Scrt1.o
 .rela.fini_array
                0x0000000000008cd0       0x30 /usr/lib/gcc/x86_64-linux-gnu/11/../../../x86_64-linux-gnu/Scrt1.o
 .rela.init_array
                0x0000000000008d00       0x60 /usr/lib/gcc/x86_64-linux-gnu/11/../../../x86_64-linux-gnu/Scrt1.o
 .rela.nvFatBinSegment
                0x0000000000008d60       0x48 /usr/lib/gcc/x86_64-linux-gnu/11/../../../x86_64-linux-gnu/Scrt1.o
 .rela.init_array.00150
                0x0000000000008da8       0x18 /usr/lib/gcc/x86_64-linux-gnu/11/../../../x86_64-linux-gnu/Scrt1.o

.rela.plt       0x0000000000008dc0      0xf18
 *(.rela.plt)
 .rela.plt      0x0000000000008dc0      0xf18 /usr/lib/gcc/x86_64-linux-gnu/11/../../../x86_64-linux-gnu/Scrt1.o
 *(.rela.iplt)

.relr.dyn
 *(.relr.dyn)
                0x000000000000a000                . = ALIGN (CONSTANT (MAXPAGESIZE))

.init           0x000000000000a000       0x1b
 *(SORT_NONE(.init))
 .init          0x000000000000a000       0x16 /usr/lib/gcc/x86_64-linux-gnu/11/../../../x86_64-linux-gnu/crti.o
                0x000000000000a000                _init
 .init          0x000000000000a016        0x5 /usr/lib/gcc/x86_64-linux-gnu/11/../../../x86_64-linux-gnu/crtn.o

.plt            0x000000000000a020      0xa20
 *(.plt)
 .plt           0x000000000000a020      0xa20 /usr/lib/gcc/x86_64-linux-gnu/11/../../../x86_64-linux-gnu/Scrt1.o
                0x000000000000a030                ftell@@GLIBC_2.2.5
                0x000000000000a040                pthread_cond_signal@@GLIBC_2.3.2
                0x000000000000a050                getegid@@GLIBC_2.2.5
                0x000000000000a060                __errno_location@@GLIBC_2.2.5
                0x000000000000a070                printf@@GLIBC_2.2.5
                0x000000000000a080                pthread_mutexattr_init@@GLIBC_2.34
                0x000000000000a090                syscall@@GLIBC_2.2.5
                0x000000000000a0a0                uname@@GLIBC_2.2.5
                0x000000000000a0b0                pthread_condattr_init@@GLIBC_2.2.5
                0x000000000000a0c0                get_nprocs@@GLIBC_2.2.5
                0x000000000000a0d0                mkfifo@@GLIBC_2.2.5
                0x000000000000a0e0                pthread_mutex_trylock@@GLIBC_2.34
                0x000000000000a0f0                pthread_setspecific@@GLIBC_2.34
                0x000000000000a100                strstr@@GLIBC_2.2.5
                0x000000000000a110                socket@@GLIBC_2.2.5
                0x000000000000a120                sem_trywait@@GLIBC_2.34
                0x000000000000a130                recvmsg@@GLIBC_2.2.5
                0x000000000000a140                nanosleep@@GLIBC_2.2.5
                0x000000000000a150                strtoul@@GLIBC_2.2.5
                0x000000000000a160                realpath@@GLIBC_2.3
                0x000000000000a170                pthread_rwlockattr_setpshared@@GLIBC_2.34
                0x000000000000a180                pthread_cond_broadcast@@GLIBC_2.3.2
                0x000000000000a190                write@@GLIBC_2.2.5
                0x000000000000a1a0                strchr@@GLIBC_2.2.5
                0x000000000000a1b0                rmdir@@GLIBC_2.2.5
                0x000000000000a1c0                strlen@@GLIBC_2.2.5
                0x000000000000a1d0                memcmp@@GLIBC_2.2.5
                0x000000000000a1e0                mkdir@@GLIBC_2.2.5
                0x000000000000a1f0                fchmod@@GLIBC_2.2.5
                0x000000000000a200                unlink@@GLIBC_2.2.5
                0x000000000000a210                strncmp@@GLIBC_2.2.5
                0x000000000000a220                getuid@@GLIBC_2.2.5
                0x000000000000a230                getcwd@@GLIBC_2.2.5
                0x000000000000a240                strncpy@@GLIBC_2.2.5
                0x000000000000a250                localtime_r@@GLIBC_2.2.5
                0x000000000000a260                memset@@GLIBC_2.2.5
                0x000000000000a270                munmap@@GLIBC_2.2.5
                0x000000000000a280                fcntl@@GLIBC_2.2.5
                0x000000000000a290                geteuid@@GLIBC_2.2.5
                0x000000000000a2a0                sem_wait@@GLIBC_2.34
                0x000000000000a2b0                shmget@@GLIBC_2.2.5
                0x000000000000a2c0                vsnprintf@@GLIBC_2.2.5
                0x000000000000a2d0                pthread_rwlockattr_init@@GLIBC_2.34
                0x000000000000a2e0                sysconf@@GLIBC_2.2.5
                0x000000000000a2f0                pthread_rwlockattr_destroy@@GLIBC_2.34
                0x000000000000a300                calloc@@GLIBC_2.2.5
                0x000000000000a310                dlvsym@@GLIBC_2.34
                0x000000000000a320                strncat@@GLIBC_2.2.5
                0x000000000000a330                pthread_detach@@GLIBC_2.34
                0x000000000000a340                sscanf@@GLIBC_2.2.5
                0x000000000000a350                open@@GLIBC_2.2.5
                0x000000000000a360                pthread_mutex_unlock@@GLIBC_2.2.5
                0x000000000000a370                pthread_rwlock_init@@GLIBC_2.34
                0x000000000000a380                dlclose@@GLIBC_2.34
                0x000000000000a390                sendmsg@@GLIBC_2.2.5
                0x000000000000a3a0                memcpy@@GLIBC_2.14
                0x000000000000a3b0                shmctl@@GLIBC_2.2.5
                0x000000000000a3c0                connect@@GLIBC_2.2.5
                0x000000000000a3d0                pthread_rwlock_tryrdlock@@GLIBC_2.34
                0x000000000000a3e0                sem_init@@GLIBC_2.34
                0x000000000000a3f0                socketpair@@GLIBC_2.2.5
                0x000000000000a400                __cxa_atexit@@GLIBC_2.2.5
                0x000000000000a410                pthread_self@@GLIBC_2.2.5
                0x000000000000a420                pthread_join@@GLIBC_2.34
                0x000000000000a430                clock_gettime@@GLIBC_2.17
                0x000000000000a440                chmod@@GLIBC_2.2.5
                0x000000000000a450                pthread_rwlock_rdlock@@GLIBC_2.34
                0x000000000000a460                time@@GLIBC_2.2.5
                0x000000000000a470                strcpy@@GLIBC_2.2.5
                0x000000000000a480                pthread_once@@GLIBC_2.34
                0x000000000000a490                dlsym@@GLIBC_2.34
                0x000000000000a4a0                dlerror@@GLIBC_2.34
                0x000000000000a4b0                operator delete(void*)@@GLIBCXX_3.4
                0x000000000000a4c0                fclose@@GLIBC_2.2.5
                0x000000000000a4d0                operator new(unsigned long)@@GLIBCXX_3.4
                0x000000000000a4e0                pthread_condattr_setpshared@@GLIBC_2.34
                0x000000000000a4f0                __xstat@@GLIBC_2.2.5
                0x000000000000a500                fileno@@GLIBC_2.2.5
                0x000000000000a510                fdopen@@GLIBC_2.2.5
                0x000000000000a520                __fxstat@@GLIBC_2.2.5
                0x000000000000a530                fseek@@GLIBC_2.2.5
                0x000000000000a540                __stack_chk_fail@@GLIBC_2.4
                0x000000000000a550                listen@@GLIBC_2.2.5
                0x000000000000a560                pthread_mutex_destroy@@GLIBC_2.2.5
                0x000000000000a570                pthread_rwlock_timedrdlock@@GLIBC_2.34
                0x000000000000a580                fflush@@GLIBC_2.2.5
                0x000000000000a590                fopen@@GLIBC_2.2.5
                0x000000000000a5a0                pthread_key_delete@@GLIBC_2.34
                0x000000000000a5b0                free@@GLIBC_2.2.5
                0x000000000000a5c0                madvise@@GLIBC_2.2.5
                0x000000000000a5d0                pthread_cond_init@@GLIBC_2.3.2
                0x000000000000a5e0                exit@@GLIBC_2.2.5
                0x000000000000a5f0                getenv@@GLIBC_2.2.5
                0x000000000000a600                fputc@@GLIBC_2.2.5
                0x000000000000a610                strncasecmp@@GLIBC_2.2.5
                0x000000000000a620                nftw@@GLIBC_2.3.3
                0x000000000000a630                pthread_kill@@GLIBC_2.34
                0x000000000000a640                sysinfo@@GLIBC_2.2.5
                0x000000000000a650                pthread_rwlock_unlock@@GLIBC_2.34
                0x000000000000a660                malloc@@GLIBC_2.2.5
                0x000000000000a670                pthread_mutexattr_setpshared@@GLIBC_2.34
                0x000000000000a680                pipe@@GLIBC_2.2.5
                0x000000000000a690                ftruncate@@GLIBC_2.2.5
                0x000000000000a6a0                dlopen@@GLIBC_2.34
                0x000000000000a6b0                shmat@@GLIBC_2.2.5
                0x000000000000a6c0                strtol@@GLIBC_2.2.5
                0x000000000000a6d0                usleep@@GLIBC_2.2.5
                0x000000000000a6e0                kill@@GLIBC_2.2.5
                0x000000000000a6f0                fprintf@@GLIBC_2.2.5
                0x000000000000a700                read@@GLIBC_2.2.5
                0x000000000000a710                sched_yield@@GLIBC_2.2.5
                0x000000000000a720                getpid@@GLIBC_2.2.5
                0x000000000000a730                pthread_mutex_lock@@GLIBC_2.2.5
                0x000000000000a740                pthread_mutexattr_settype@@GLIBC_2.34
                0x000000000000a750                pthread_mutexattr_destroy@@GLIBC_2.34
                0x000000000000a760                pthread_mutex_init@@GLIBC_2.2.5
                0x000000000000a770                fread@@GLIBC_2.2.5
                0x000000000000a780                pthread_rwlock_wrlock@@GLIBC_2.34
                0x000000000000a790                gethostname@@GLIBC_2.2.5
                0x000000000000a7a0                opendir@@GLIBC_2.2.5
                0x000000000000a7b0                setenv@@GLIBC_2.2.5
                0x000000000000a7c0                poll@@GLIBC_2.2.5
                0x000000000000a7d0                pthread_cond_timedwait@@GLIBC_2.3.2
                0x000000000000a7e0                pthread_getspecific@@GLIBC_2.34
                0x000000000000a7f0                pthread_cond_wait@@GLIBC_2.3.2
                0x000000000000a800                readdir@@GLIBC_2.2.5
                0x000000000000a810                std::ios_base::Init::Init()@@GLIBCXX_3.4
                0x000000000000a820                puts@@GLIBC_2.2.5
                0x000000000000a830                feof@@GLIBC_2.2.5
                0x000000000000a840                atoi@@GLIBC_2.2.5
                0x000000000000a850                fgetc@@GLIBC_2.2.5
                0x000000000000a860                gnu_get_libc_version@@GLIBC_2.2.5
                0x000000000000a870                pthread_key_create@@GLIBC_2.34
                0x000000000000a880                mprotect@@GLIBC_2.2.5
                0x000000000000a890                snprintf@@GLIBC_2.2.5
                0x000000000000a8a0                closedir@@GLIBC_2.2.5
                0x000000000000a8b0                gettimeofday@@GLIBC_2.2.5
                0x000000000000a8c0                memmove@@GLIBC_2.2.5
                0x000000000000a8d0                sem_timedwait@@GLIBC_2.34
                0x000000000000a8e0                realloc@@GLIBC_2.2.5
                0x000000000000a8f0                pthread_rwlock_destroy@@GLIBC_2.34
                0x000000000000a900                shm_open@@GLIBC_2.34
                0x000000000000a910                __tls_get_addr@@GLIBC_2.3
                0x000000000000a920                sem_post@@GLIBC_2.34
                0x000000000000a930                mmap@@GLIBC_2.2.5
                0x000000000000a940                setsockopt@@GLIBC_2.2.5
                0x000000000000a950                remove@@GLIBC_2.2.5
                0x000000000000a960                pthread_create@@GLIBC_2.34
                0x000000000000a970                strdup@@GLIBC_2.2.5
                0x000000000000a980                pthread_rwlock_trywrlock@@GLIBC_2.34
                0x000000000000a990                shmdt@@GLIBC_2.2.5
                0x000000000000a9a0                lseek@@GLIBC_2.2.5
                0x000000000000a9b0                shm_unlink@@GLIBC_2.34
                0x000000000000a9c0                ferror@@GLIBC_2.2.5
                0x000000000000a9d0                sem_destroy@@GLIBC_2.34
                0x000000000000a9e0                fscanf@@GLIBC_2.2.5
                0x000000000000a9f0                pthread_cond_destroy@@GLIBC_2.3.2
                0x000000000000aa00                fwrite@@GLIBC_2.2.5
                0x000000000000aa10                close@@GLIBC_2.2.5
                0x000000000000aa20                __getdelim@@GLIBC_2.2.5
                0x000000000000aa30                pthread_rwlock_timedwrlock@@GLIBC_2.34
 *(.iplt)

.plt.got        0x000000000000aa40        0x8
 *(.plt.got)
 .plt.got       0x000000000000aa40        0x8 /usr/lib/gcc/x86_64-linux-gnu/11/../../../x86_64-linux-gnu/Scrt1.o
                0x000000000000aa40                __cxa_finalize@@GLIBC_2.2.5

.plt.sec
 *(.plt.sec)

.text           0x000000000000aa50    0x7b5b2
 *(.text.unlikely .text.*_unlikely .text.unlikely.*)
 *(.text.exit .text.exit.*)
 .text.exit     0x000000000000aa50       0x12 /usr/local/cuda/bin/../targets/x86_64-linux/lib/libcudart_static.a(cudart_static.o)
 *(.text.startup .text.startup.*)
 *fill*         0x000000000000aa62        0xe 
 .text.startup  0x000000000000aa70       0xe2 /usr/local/cuda/bin/../targets/x86_64-linux/lib/libcudart_static.a(cudart_static.o)
 *(.text.hot .text.hot.*)
 *(SORT_BY_NAME(.text.sorted.*))
 *(.text .stub .text.* .gnu.linkonce.t.*)
 *fill*         0x000000000000ab52        0xe 
 .text          0x000000000000ab60       0x26 /usr/lib/gcc/x86_64-linux-gnu/11/../../../x86_64-linux-gnu/Scrt1.o
                0x000000000000ab60                _start
 .text          0x000000000000ab86        0x0 /usr/lib/gcc/x86_64-linux-gnu/11/../../../x86_64-linux-gnu/crti.o
 *fill*         0x000000000000ab86        0xa 
 .text          0x000000000000ab90       0xb9 /usr/lib/gcc/x86_64-linux-gnu/11/crtbeginS.o
 .text          0x000000000000ac49       0x1a /tmp/tmpxft_0000b254_00000000-7_asyncAPI_dlink.o
 .text          0x000000000000ac63      0xae7 asyncAPI.o
                0x000000000000ac98                correct_output(int*)
                0x000000000000ad1b                cpucheck()
                0x000000000000ae60                main
                0x000000000000b47e                __device_stub__Z16increment_kernelPi(int*)
                0x000000000000b5a4                increment_kernel(int*)
 .text._ZN4dim3C2Ejjj
                0x000000000000b74a       0x35 asyncAPI.o
                0x000000000000b74a                dim3::dim3(unsigned int, unsigned int, unsigned int)
                0x000000000000b74a                dim3::dim3(unsigned int, unsigned int, unsigned int)
 .text._Z21stringRemoveDelimitercPKc
                0x000000000000b77f       0x57 asyncAPI.o
                0x000000000000b77f                stringRemoveDelimiter(char, char const*)
 .text._Z16checkCmdLineFlagiPPKcS0_
                0x000000000000b7d6       0xff asyncAPI.o
                0x000000000000b7d6                checkCmdLineFlag(int, char const**, char const*)
 .text._Z21getCmdLineArgumentIntiPPKcS0_
                0x000000000000b8d5      0x12f asyncAPI.o
                0x000000000000b8d5                getCmdLineArgumentInt(int, char const**, char const*)
 .text._Z19_ConvertSMVer2Coresii
                0x000000000000ba04      0x206 asyncAPI.o
                0x000000000000ba04                _ConvertSMVer2Cores(int, int)
 .text._Z22_ConvertSMVer2ArchNameii
                0x000000000000bc0a      0x12b asyncAPI.o
                0x000000000000bc0a                _ConvertSMVer2ArchName(int, int)
 .text._Z13gpuDeviceIniti
                0x000000000000bd35      0x28f asyncAPI.o
                0x000000000000bd35                gpuDeviceInit(int)
 .text._Z23gpuGetMaxGflopsDeviceIdv
                0x000000000000bfc4      0x2eb asyncAPI.o
                0x000000000000bfc4                gpuGetMaxGflopsDeviceId()
 .text._Z14findCudaDeviceiPPKc
                0x000000000000c2af      0x1b6 asyncAPI.o
                0x000000000000c2af                findCudaDevice(int, char const**)
 *fill*         0x000000000000c465        0x1 
 .text._ZN18StopWatchInterfaceC2Ev
                0x000000000000c466       0x1d asyncAPI.o
                0x000000000000c466                StopWatchInterface::StopWatchInterface()
                0x000000000000c466                StopWatchInterface::StopWatchInterface()
 *fill*         0x000000000000c483        0x1 
 .text._ZN18StopWatchInterfaceD2Ev
                0x000000000000c484       0x1d asyncAPI.o
                0x000000000000c484                StopWatchInterface::~StopWatchInterface()
                0x000000000000c484                StopWatchInterface::~StopWatchInterface()
 *fill*         0x000000000000c4a1        0x1 
 .text._ZN18StopWatchInterfaceD0Ev
                0x000000000000c4a2       0x2a asyncAPI.o
                0x000000000000c4a2                StopWatchInterface::~StopWatchInterface()
 .text._ZN14StopWatchLinuxC2Ev
                0x000000000000c4cc       0x72 asyncAPI.o
                0x000000000000c4cc                StopWatchLinux::StopWatchLinux()
                0x000000000000c4cc                StopWatchLinux::StopWatchLinux()
 .text._ZN14StopWatchLinuxD2Ev
                0x000000000000c53e       0x2d asyncAPI.o
                0x000000000000c53e                StopWatchLinux::~StopWatchLinux()
                0x000000000000c53e                StopWatchLinux::~StopWatchLinux()
 *fill*         0x000000000000c56b        0x1 
 .text._ZN14StopWatchLinuxD0Ev
                0x000000000000c56c       0x2a asyncAPI.o
                0x000000000000c56c                StopWatchLinux::~StopWatchLinux()
 .text._ZN14StopWatchLinux5startEv
                0x000000000000c596       0x30 asyncAPI.o
                0x000000000000c596                StopWatchLinux::start()
 .text._ZN14StopWatchLinux4stopEv
                0x000000000000c5c6       0x62 asyncAPI.o
                0x000000000000c5c6                StopWatchLinux::stop()
 .text._ZN14StopWatchLinux5resetEv
                0x000000000000c628       0x59 asyncAPI.o
                0x000000000000c628                StopWatchLinux::reset()
 *fill*         0x000000000000c681        0x1 
 .text._ZN14StopWatchLinux7getTimeEv
                0x000000000000c682       0x4b asyncAPI.o
                0x000000000000c682                StopWatchLinux::getTime()
 *fill*         0x000000000000c6cd        0x1 
 .text._ZN14StopWatchLinux14getAverageTimeEv
                0x000000000000c6ce       0x3b asyncAPI.o
                0x000000000000c6ce                StopWatchLinux::getAverageTime()
 *fill*         0x000000000000c709        0x1 
 .text._ZN14StopWatchLinux11getDiffTimeEv
                0x000000000000c70a       0x96 asyncAPI.o
                0x000000000000c70a                StopWatchLinux::getDiffTime()
 .text._Z14sdkCreateTimerPP18StopWatchInterface
                0x000000000000c7a0       0x40 asyncAPI.o
                0x000000000000c7a0                sdkCreateTimer(StopWatchInterface**)
 .text._Z13sdkStartTimerPP18StopWatchInterface
                0x000000000000c7e0       0x40 asyncAPI.o
                0x000000000000c7e0                sdkStartTimer(StopWatchInterface**)
 .text._Z12sdkStopTimerPP18StopWatchInterface
                0x000000000000c820       0x40 asyncAPI.o
                0x000000000000c820                sdkStopTimer(StopWatchInterface**)
 .text._Z13sdkResetTimerPP18StopWatchInterface
                0x000000000000c860       0x40 asyncAPI.o
                0x000000000000c860                sdkResetTimer(StopWatchInterface**)
 .text._Z16sdkGetTimerValuePP18StopWatchInterface
                0x000000000000c8a0       0x4b asyncAPI.o
                0x000000000000c8a0                sdkGetTimerValue(StopWatchInterface**)
 .text._Z5checkI9cudaErrorEvT_PKcS3_i
                0x000000000000c8eb       0x70 asyncAPI.o
                0x000000000000c8eb                void check<cudaError>(cudaError, char const*, char const*, int)
 *fill*         0x000000000000c95b        0x5 
 .text          0x000000000000c960    0x7931a /usr/local/cuda/bin/../targets/x86_64-linux/lib/libcudart_static.a(cudart_static.o)
                0x000000000000e4c0                libcudart_static_509c026087083593ba887caf201b2a0c022d569c
                0x000000000000e4d0                libcudart_static_bbbe87671eb47a7d9f8d6fb11b7c043e5ef03630
                0x000000000000e5e0                libcudart_static_1db67a9dec28a6380c73db65a619c7e501ce60b7
                0x000000000000e710                libcudart_static_fd32aa02e459c221f1c5b50c874669578f6a167c
                0x000000000000e760                libcudart_static_ff466e58390a44a174cd1b2084ede65f6033356c
                0x000000000000e7b0                libcudart_static_5b9bf64834f73ef3a1285c34464d5f5005838db4
                0x000000000000e820                libcudart_static_0c6abe493211a3a1958f04ab2c2c1b8f0e3a30eb
                0x000000000000e890                libcudart_static_02efd76b5a19be8027dd1fa9e03c071365bafe11
                0x000000000000e900                libcudart_static_c2886093b3fd25dea929e224b75a03eadd6e1d63
                0x000000000000e970                libcudart_static_2f4e650e07aaa3ebd50dc9c2bc3418aea3dae1d9
                0x000000000000e9d0                libcudart_static_1b94ca677847eb5e0d10d7cb1a7a07ad6e69af78
                0x000000000000ea30                libcudart_static_4778d57055ab799b5573fd2ab9337269640dd667
                0x000000000000ea90                libcudart_static_096b3361b4b74976c2222af4cf8e50dc301c2572
                0x000000000000eaf0                libcudart_static_1e41e07c32c7a1c9c95e46a1b96cd0fc0867632f
                0x000000000000eb50                libcudart_static_9a55759a73c2027d8e05255ec7247527acffcc36
                0x000000000000ebb0                libcudart_static_0cefb90275b5541715716a977583f02d4f12c2f8
                0x000000000000ec50                libcudart_static_469243e5d4235369510e210bc5a812aade98efac
                0x000000000000ed00                libcudart_static_bfe4cb7992ba9b78ec8427747b16f974c88d2808
                0x000000000000edc0                libcudart_static_78aa1bf138df145882cacc26706b1b47f56d1cd3
                0x000000000000eeb0                libcudart_static_28c78c3131ffee4fd525342f01731d26c9042d1c
                0x000000000000efa0                libcudart_static_44c2c610f0e41e1b9963264c1a48d24b7eead373
                0x000000000000f000                libcudart_static_ca6ed246f0e33aa9a3e8d36b609cbd1a4d23a8b6
                0x000000000000f060                libcudart_static_6c30f73bb861df3155bd61f01d210add30b0c29e
                0x000000000000f110                libcudart_static_afe61d9cb75d144e5774473c260e5b6a7f6e9b34
                0x000000000000f180                libcudart_static_0a0a3502b0b2db49895246cc5b5d11ebdf30f74a
                0x000000000000f1e0                libcudart_static_8f023ea731189fd7626a5f7f11c9ba85845f5991
                0x000000000000f240                libcudart_static_5e1c873e631aa315b8679e07b9f455e0e3101aec
                0x000000000000f300                libcudart_static_0a325d5f9f1865248b0d0ca56ff8b1a5601b58a3
                0x000000000000f3c0                libcudart_static_c47c9944eca3576a5cd450403fd96a4702ba5273
                0x000000000000f480                libcudart_static_b0deea52d31a5984050cc25db7bbdf987945414a
                0x000000000000f540                libcudart_static_30619a54eb2c035b411b3d90708dba3752d8e116
                0x000000000000f5a0                libcudart_static_71c800fe991ec9eabc4ae17f7d735f58d669fc29
                0x000000000000f720                libcudart_static_1245174f1c6e37f9b2bf0ec7f5835e9635bbdf9f
                0x000000000000f8a0                libcudart_static_f7178ff44af2120dbc16c0b50f46b99b78685b98
                0x000000000000f8d0                libcudart_static_26ff6708a6c9d60b6e6101411905496fa765d0ec
                0x000000000000f900                libcudart_static_99d4887811fb211b1a3ca251a03d01db522efa5e
                0x000000000000fa70                libcudart_static_9407899f77e72732c379f97b41f83786677f8abb
                0x000000000000fb40                libcudart_static_d6d13771a9139b439d8191037dc5acc353a23010
                0x000000000000fc40                libcudart_static_3a1aadb2671488d08b5d24caf03568702bc8ae55
                0x000000000000fcc0                libcudart_static_0688a0a677a9dcc39372495606f23b0da357cd33
                0x000000000000fd90                libcudart_static_42234a9b1775c86395c6c5f1283bff70941d009e
                0x000000000000fef0                libcudart_static_cb4f6f5d7325285ae110993d01c60f3a5eab9dd1
                0x000000000000ff50                libcudart_static_6e16526db6388964b3f3c0c470e12b4266cb6a42
                0x0000000000010020                libcudart_static_e7fd0167999bfdbbd4b4d4fc581b09fd0369f31d
                0x00000000000100f0                libcudart_static_53e492ae63e845184c7e2fe20a6b402ab49fffb4
                0x0000000000010150                libcudart_static_0409e35b1e092a5fc3e4631e46f6acf7bb060568
                0x00000000000101b0                libcudart_static_08fa9d50f42bc0bcf1922c46044a26a7efd35189
                0x0000000000010220                libcudart_static_10a1d316e7e0bb1322e9b897e8b1826277245bc1
                0x0000000000010280                libcudart_static_33899b946c9e46406471810ed1e655ee1a4e66ee
                0x00000000000102f0                libcudart_static_5557cf4e1ac57858a95068268c0b9ad9ad9fcaf4
                0x0000000000010350                libcudart_static_bc6c556c4eebaf67849f36c7ca60b0e3cb365507
                0x00000000000103c0                libcudart_static_ab9a6344caa16d170dca4c871aff4b3a73c6d047
                0x0000000000010430                libcudart_static_6db0f43e44f60dbc2ffca5f076d47c95c5d88d29
                0x00000000000104a0                libcudart_static_9218d52a025161494d66076733bf00e7bed96853
                0x0000000000010510                libcudart_static_168c7788ae8f980cc97a93ac34416cf638d2d447
                0x0000000000010580                libcudart_static_8726453a92e9ecff61c11d57a9b580846674a4ad
                0x00000000000105f0                libcudart_static_cbebe0caf16a68108f477a33dfe9aa44a06376ce
                0x0000000000010660                libcudart_static_b65a36ebb859fb5856218cfc8f5432c833b5f8f7
                0x00000000000106d0                libcudart_static_76d9a83aa11634ca31acdc0d43ff03f0c74c154b
                0x0000000000010740                libcudart_static_dcaa326fe3c80d25b126c3a25ec851756aa68e65
                0x00000000000107b0                libcudart_static_1aac81881344f819106be53ec83d5ea19db2119c
                0x0000000000010820                libcudart_static_bf45aabb9e6d1b6a3cb61a2fc9d707bb062c37ce
                0x0000000000010920                libcudart_static_e644aca8b63849b075a0c9916ddcf7cab6a34abb
                0x0000000000010a20                libcudart_static_02630f093bd8a0c9bd3a8ce0102f4a76127ef09c
                0x0000000000010b00                libcudart_static_7e7141562a870a54a243ef3bc6731359c3d10750
                0x0000000000010be0                libcudart_static_43d9a0d553511aed66b6c644856e24b360d81d0c
                0x0000000000010c40                libcudart_static_141dba5462e92d2cffd1abc474df476c510a3a8c
                0x0000000000010ca0                libcudart_static_a93d2b67df82760d6eae364fbb17a6e273fed075
                0x0000000000010d00                libcudart_static_4f92f8433a142aebb5fc2edec3a3f7a3276afdbb
                0x0000000000010d70                libcudart_static_68c1cb4c78c7b0bf8acd009b5306667052ac2b4f
                0x0000000000010de0                libcudart_static_17009803928ec7368fdc8d340c2772c92ba9e141
                0x0000000000010ec0                libcudart_static_1206222e01c6e41c43371e3347addf4f2e4374db
                0x0000000000010fa0                libcudart_static_266a3ac64d0e8373ea89efe9ac44b1c4b3647333
                0x0000000000011020                libcudart_static_d19c57cc5eb555c4a971adbe83237fbd453031fe
                0x00000000000110a0                libcudart_static_7304beb15f17907bccdc6b7603b23d2a2951bc68
                0x0000000000011120                libcudart_static_426889d6fde5c978d3dae716354e71aee8c58f56
                0x00000000000111a0                libcudart_static_099eddf6a45bc4b65880ef2cb255315645dc12ae
                0x0000000000011200                libcudart_static_12d419f150dff5ad1f460d885cfe1afc041815e7
                0x0000000000011280                libcudart_static_786ee8b7756e739628850bd129f3d67c1a9ca33e
                0x00000000000112f0                libcudart_static_f957cf90f6633e532c091a3d5682a34e7cb19d63
                0x0000000000011360                libcudart_static_fa199b62a19fef1e94aaa17b28b57324fe81fbf7
                0x00000000000113d0                libcudart_static_94ab54c2eb7b546a402fb87fc8c16806bd2b5239
                0x0000000000011440                libcudart_static_317a7f164f591251dfae83906d24f4847942fd54
                0x00000000000114a0                libcudart_static_daedcea17177362c37c34d10632b001f03c10dcf
                0x0000000000011500                libcudart_static_c526ffae8ae71a4d1dd545771f20d6a7e8941bd9
                0x0000000000011560                libcudart_static_a3a9f371df985977c6d4d172d13690fa389848d0
                0x0000000000011610                libcudart_static_437a784af04402a17a449781dafd253e466afd14
                0x00000000000117f0                libcudart_static_cf636e246a9776b6695bb89be1c1d8e2cbf30fe8
                0x00000000000118a0                libcudart_static_3d16dda3f70085ad0c737781bdc2c79a5785d5f7
                0x00000000000119b0                libcudart_static_d4cb0d61885b86f1a530bade9c634caa385c8630
                0x0000000000011a10                libcudart_static_6701f43eaf4ab6a6084c8f3e5c7d6bfff867bbcb
                0x0000000000011bd0                libcudart_static_81f5ed35913dfab18e317d9cd5fba55e14c1f8b7
                0x0000000000011be0                libcudart_static_c18f83cff05d9fdbb3ad8672aa174df45987a727
                0x0000000000011bf0                libcudart_static_cc235cdfe386e808415db6d689b64fa804650954
                0x0000000000011c70                libcudart_static_8560dfd250292a37c0e1d15782658d32ef72d2e5
                0x0000000000011cf0                libcudart_static_9949b4588b7b5a8838851cf644b1fc34422f4788
                0x0000000000011d00                libcudart_static_e17b0a55c1a9627d984bfa7a69688aae48585f70
                0x0000000000011d10                libcudart_static_43f88c9a8fe5b7a38b85ec17c5a12b17a698e39d
                0x0000000000011d90                libcudart_static_5c7653c22d1d61ed4f4c251c3841d2843c907514
                0x0000000000011e10                libcudart_static_cd119c124da4a126057b6c47de619c0dccf71afb
                0x0000000000011e70                libcudart_static_67e1b0787b19a2bbb27c666dd832069f3568cff2
                0x0000000000011f00                libcudart_static_63181f4db556efac9d97f26e25f61babfe4f4039
                0x0000000000011f90                libcudart_static_4d8b33a106dceb3c07a56e26de61f2d53bb62a68
                0x0000000000012100                libcudart_static_9b253accfd70c2c1ae355234f6df8de47f022baa
                0x0000000000012270                libcudart_static_1bf318650888ed8605d5752dc15d17a8bd526a83
                0x00000000000123e0                libcudart_static_6164b4a0dc3592039284e30c17a637713c431157
                0x0000000000012550                libcudart_static_9bebc5ebd1a83a8a29188e9dcfe20b70de154597
                0x00000000000126c0                libcudart_static_5857863686ae33c9b497ab76a0d1a8e584fb936b
                0x0000000000012830                libcudart_static_bb6272cac14f2d3abf23e7689e2503a2e83ed380
                0x0000000000012ac0                libcudart_static_b9a6bbb12bd7fdac167d33980af8973ca0a4b822
                0x0000000000012d60                libcudart_static_a486c3abca1560039929bdd22a7be550bd85c560
                0x0000000000012e50                libcudart_static_713aa69fe6021f6cf2f5c470bdecfc9813d99965
                0x0000000000012f00                libcudart_static_b9ccfab4de5fb2751a432596f08baca3e0199b4f
                0x0000000000012fb0                libcudart_static_afcf691df9e1fe71eac5d78c22e74956b97648cb
                0x0000000000012fc0                libcudart_static_963ac3c301b46abf3a88d982815c5d4266131308
                0x0000000000012fd0                libcudart_static_217a9e17205cc0021cb63b196b182b6e735235e8
                0x0000000000013040                libcudart_static_ea258bcf470d8ce092d0ae8f09df30867d120fdd
                0x00000000000130b0                libcudart_static_adb5f783e09f4d4accc321198548f260c18bac90
                0x0000000000013140                libcudart_static_f74e2f2bcf2cf49bd1a61332e1d15bd1e748f9cf
                0x00000000000131c0                libcudart_static_1c70fb9f07f12156f8a69d75e84dbd16bf594e62
                0x0000000000013230                libcudart_static_32c4ea26ee33c20f879c91c53a9c75ca69576b3a
                0x00000000000132a0                libcudart_static_a6b4ebf6406aa715b200756fcc397965457d733a
                0x0000000000013310                libcudart_static_9284401b4c53cc217f231570c9e196e835442c09
                0x0000000000013370                libcudart_static_eb2c0869b5c9790455414f326d70fbc64db19338
                0x0000000000013400                libcudart_static_9197a626567d3ed0a503b0bf81c55b33daa0ddda
                0x0000000000013480                libcudart_static_6e7bea098a40a2b7289bfd80e971249c55c7a04f
                0x0000000000013510                libcudart_static_c19d5ba593c0518dc863411e067fdee9ad8619dc
                0x00000000000135b0                libcudart_static_c64d4787e94fe64d8e27ede30dfe20c11b592bde
                0x0000000000013610                libcudart_static_8dc6d7ed9119b112d8dec24939471f3ef8f3d64b
                0x0000000000013670                libcudart_static_e89166e2c2b196fc1eecd3ac0e6a1472774ca709
                0x0000000000013870                libcudart_static_2f9cc62232b99ac9ff52411a46f83bbfe0daa4e3
                0x0000000000013920                libcudart_static_70fecd8ef647c3aa1c2bfe823bdb2754afe25e36
                0x00000000000139c0                libcudart_static_f92a0a113851594bf54fbddd5d63fb35f26f19af
                0x0000000000013a30                libcudart_static_529480eb9f457ce422c3b56224edad0a8bf140b3
                0x0000000000013ad0                libcudart_static_96ec88240dc8bf59303d7ece3704a3f4e65357a2
                0x0000000000013b40                libcudart_static_29426b13010a2ffacba0dd387557fbc2641ed50f
                0x0000000000013bb0                libcudart_static_39eb4a17c9489ad74ec69e1d41ec37e374d011ef
                0x0000000000013c20                libcudart_static_3f7218e169a6e3932f4257585e4f890635a153c5
                0x0000000000013d50                libcudart_static_1620d9e0eb0b93cccce8accb7231632f4828ac02
                0x0000000000013dc0                libcudart_static_28a90e858977592ee2593172eb3afc1236908c79
                0x0000000000013e60                libcudart_static_b182cbadbb91eacd9260954d979731eaf7fc10fc
                0x0000000000013f00                libcudart_static_23a812764ac25bb3777da1126c2202f23544b93d
                0x0000000000013fc0                libcudart_static_eee08e2d49f897981dc521efc7228b54065abf82
                0x0000000000014080                libcudart_static_313088868e8b12a7f059aa9a12ee060675ff301e
                0x0000000000014130                libcudart_static_cbd9a8aa7bb4cceda8bd9f6ff040fee9857d0742
                0x00000000000141e0                libcudart_static_9b43a4cf208c115d5f1317f59b7cdbb3ab90a5d3
                0x00000000000142a0                libcudart_static_34e00523697b16bc1eb05c425ae828d6d6809fc2
                0x0000000000014360                libcudart_static_88d530844cc820d01cebe675927b6d5fdf6bf212
                0x00000000000143f0                libcudart_static_98984925b2e4a53c4b97b1139df2d62eb79167ae
                0x0000000000014480                libcudart_static_1480d4d4f8778176f58da390fe7ca2eaae50e4a9
                0x0000000000014500                libcudart_static_d7dca3ba4cd0c96089e78c4c73b62d9add0c6f06
                0x0000000000014560                libcudart_static_d8e97b71f57e13d5dd32a75e315c11f881c9e40b
                0x00000000000145c0                libcudart_static_4c72d132e4031ff75f556c9fcae8cb90312c8974
                0x0000000000014620                libcudart_static_04c0d71d3ce97546bca1b167cee8347e0ce89e7b
                0x0000000000014960                libcudart_static_80c34778c4cc13852a04ff13f88c38c0e2e5fbb3
                0x00000000000149e0                libcudart_static_fb7a80b996b5ffe6af7fbc2f0c6c26fc501969e1
                0x0000000000014ac0                libcudart_static_e33737da8423a005a7a14afc85faeb899282ab62
                0x0000000000014b20                libcudart_static_cf2db9b3d5db072ae97a296e25ce7962363874f9
                0x0000000000014b80                libcudart_static_9e58097b2707351fbec5d2ff4f733d9ea01aaec3
                0x0000000000014be0                libcudart_static_f3f080f21c2677c2c2535d755c90872fa76570b1
                0x0000000000014c40                libcudart_static_d64a1c89a88e82fcd3441071850b65fdbe2aef35
                0x0000000000014ca0                libcudart_static_76b463a9a91fc926adc1e0c5960004bbe59dc823
                0x0000000000014d00                libcudart_static_1b9d2c64f58d9c2eee253ca4b9d689dda098d403
                0x0000000000014d60                libcudart_static_901c335edfe2e89188fa6b8fe3e2a2194ad05bff
                0x0000000000014de0                libcudart_static_4727fec5f8b2175f903f7c2de9631aa28e05472f
                0x0000000000014e60                libcudart_static_58f95088c96b3eda011d739033c2a2afd4fe0cab
                0x0000000000014ef0                libcudart_static_a91e307409e6c490ad75c2ae695001cd6184dd76
                0x0000000000014f80                libcudart_static_72aedf71880e519fb5d84df80955690cefe58879
                0x00000000000150c0                libcudart_static_42a096dd7006da28248066317063e17bf6baf4fd
                0x0000000000015210                libcudart_static_1a30839b7bcd524e91cd15ac67e844f4d80b65bb
                0x0000000000015340                libcudart_static_fb7abd4c168a19cb9c4bc74df0d0b8e3f5dbafef
                0x0000000000015470                libcudart_static_3382c1704e5638997496883f752d70e20859ac94
                0x0000000000015560                libcudart_static_c7105795101d405b5814fd46127fd98051b94066
                0x0000000000015660                libcudart_static_5c14f2392919a13c3eab150138e7d5d70465ef70
                0x0000000000015780                libcudart_static_e3bd7870401da9b44b886ed49021dde325ab311b
                0x00000000000158b0                libcudart_static_90de0ea27d46eced3b709c88bdf8b3eaeea8e185
                0x0000000000015990                libcudart_static_7cc97121e0fe566f4c0deeac3179f931fcf3e19f
                0x0000000000015a70                libcudart_static_f376642296d1476ebe9511df0be1b770e9c6494b
                0x0000000000015b10                libcudart_static_30747aa76740382c9e1990e6482b6447e67672f6
                0x0000000000015bb0                libcudart_static_b6e4e425eaf46e63e1b05c4b8282b5ed05ff7f2a
                0x0000000000015c50                libcudart_static_cb62604e19c3a71f98d903b87824df738dc88d9e
                0x0000000000015cf0                libcudart_static_43b43b1266d718b3eab5661c057adb29eb518106
                0x0000000000015d90                libcudart_static_666fe54617217d9bf0c6ec2d9f4005d8b9158465
                0x0000000000015e30                libcudart_static_f90a621a9a5557e7c9e2367a9e2b6f8e2c4c3140
                0x0000000000015ed0                libcudart_static_e25b56521ffd82e42dafde950273db98b51ee222
                0x0000000000015f70                libcudart_static_68127101e2d01f85b0c24511433a58184b030ca4
                0x0000000000016010                libcudart_static_9c05b894a2f05c5ce78e2aa9942e1d7c977ad2eb
                0x00000000000160b0                libcudart_static_d0d234fb47a39d19a96ea0639c8eecbe16e13a69
                0x0000000000016150                libcudart_static_6a8d90e15c37a15d387f6b6d35a4be0d81f3c30f
                0x00000000000161f0                libcudart_static_81c085d06b509cc8a79bb777121c892c5e32558f
                0x0000000000016290                libcudart_static_5f49f916543aaf42643d7a30f6ecad482d1ac27b
                0x0000000000016330                libcudart_static_dd90f8a178d0f592679090b8d78fb355bb1f83cf
                0x00000000000163d0                libcudart_static_bd53fc77f037efab59fec6b619a6cd27e646c880
                0x0000000000016470                libcudart_static_9f578c61736e0fb44445c283e0415ed7702f9ac9
                0x0000000000016510                libcudart_static_2c382d37f5b638108c2166b369d22bdc50c4e116
                0x00000000000165b0                libcudart_static_3bc7b9d998d3e1ec1c35bea9c398e64dd5dfd00c
                0x0000000000016650                libcudart_static_425c692f9be818bd63e05605ffbc6884be933f34
                0x00000000000166f0                libcudart_static_60c25487c44b453e146e3eee715d48d1ad5d93b0
                0x0000000000016790                libcudart_static_c25fa85b4e8a9ead75d707bf9058bf4b4271f3d5
                0x0000000000016830                libcudart_static_2608b3f91e2f64018558aa9d2fb53fb6a5103575
                0x00000000000168d0                libcudart_static_e2d828e91565436e8452c8d6c7f0ba549103462e
                0x0000000000016970                libcudart_static_825f8cd4c812e4c8efd3fef613aa92b8cf7e94f9
                0x00000000000169f0                libcudart_static_2e243bd4e10235b0d865367adfbe5c557ab427f8
                0x0000000000016a70                libcudart_static_37baaa029db41458162d82e1dbccebf9f0ccef49
                0x0000000000016b00                libcudart_static_3eafa1741ca149613c3ec308383ca68ba635d678
                0x0000000000016b90                libcudart_static_2c269f5271b9f18f4820f9e262ea34f0a8427c3e
                0x0000000000016d80                libcudart_static_651ae821fa1aa48be2b1529be74ace037b758452
                0x0000000000016f70                libcudart_static_b2cad2c8327d949daa182b70365e262ac6e8436a
                0x0000000000017160                libcudart_static_17fc0040895cb1ad8bbe650e6b7b4f6537bbd33e
                0x0000000000017350                libcudart_static_5d8ea4022859ea727440ce501a88d417a8a0377b
                0x00000000000173d0                libcudart_static_0be0f0659cc58b15b8c6fc88091e7dad6e5a48c6
                0x0000000000017450                libcudart_static_97ca509465866cd73e5125d0db515c712823a112
                0x00000000000174e0                libcudart_static_ce91149f59037147a4e27ffff473c72914c24ee1
                0x0000000000017570                libcudart_static_6cfe1ca5ac8ac79b8646647d24bdd75ae502672d
                0x0000000000017630                libcudart_static_dd54d5076218a2cde1501202edc91c36363ce446
                0x00000000000176f0                libcudart_static_eca47b9d5221475fc02f148a57f58f9a54b1bb73
                0x0000000000017780                libcudart_static_cb48fd8c2a71c6a9a250282611ddcf250154ebde
                0x0000000000017810                libcudart_static_1e022b82167f4279833e217ca1a4c690bfff9b80
                0x00000000000178a0                libcudart_static_2563d08b3bb7e00ffbf9c3a6c4f86a995878f252
                0x0000000000017930                libcudart_static_1ab01ee02edd7c09d8b031fd25f5bd770f6931db
                0x0000000000017a00                libcudart_static_2e12cc88e00929b1400acec8fe5ac5326f3121f8
                0x0000000000017ad0                libcudart_static_d1f4da34f9f01119dd20f99288695545feb5c3ee
                0x0000000000017b30                libcudart_static_15bc4877fcf67472146b5fd7d7e6223370e4b8d7
                0x0000000000017bb0                libcudart_static_a5705610bc20740b9cea01e55277a44f97a5d71b
                0x0000000000017c30                libcudart_static_2f597d0cf676d4885e2afc2e41d04d276fd4fe4b
                0x0000000000017cb0                libcudart_static_dac2171d7e0949fc240162c7cb00110c5105efa5
                0x0000000000017d30                libcudart_static_c00d60124fd3824a997432f1f7e1d7590502ab35
                0x0000000000017dc0                libcudart_static_a8b4102a0cd0e19f4c2f448011df94a460f73492
                0x0000000000017e50                libcudart_static_3f829b61be8a412b238719b421b87020c6e162fb
                0x0000000000017eb0                libcudart_static_88e07fef869d84e25957a73dd143eebdfd9caed0
                0x0000000000017f10                libcudart_static_14f9559f6acae2f94ba598b4e5a39f966c60e448
                0x0000000000017fa0                libcudart_static_59b04a42dbfd6b514d76d9b8e7bd3efa7c9968e5
                0x0000000000018030                libcudart_static_c050df45004c1362a0a26b7288ad47cae395a1c0
                0x0000000000018110                libcudart_static_cedc6f5bb46012446b92ed18cc1338f722d93f29
                0x0000000000018200                libcudart_static_c6385f804cda4ca3186e3bd9b2123024e88ebc4e
                0x00000000000182f0                libcudart_static_e690cbad9a475580b714d9850e1c1666d8f028d2
                0x0000000000018360                libcudart_static_c9ddd6058cc10cf9ba673ec359e16cb76c91befa
                0x00000000000183d0                libcudart_static_6250f4462c8239e35afed2151f81b1e65e5a8b03
                0x0000000000018440                libcudart_static_d4b31c692a0afbbf29e4fe36d5c745f2c2703d88
                0x00000000000184a0                libcudart_static_1c4d3a3b03a68265e61eaff9272b856f27e8b439
                0x0000000000018520                libcudart_static_96979a0bad5e547f95d84d32a5084a440e2260c7
                0x0000000000018590                libcudart_static_32b232b103063e31fab0f7d9f44976a2041a4468
                0x0000000000018610                libcudart_static_88d8571043ad161fd139140ed39346c58090c439
                0x0000000000018670                libcudart_static_20efbf66e2ed856be1ec747fd8450b4430c2e50d
                0x0000000000018f50                libcudart_static_c852268ec4b1c7eb137104b11e61825a69d60a62
                0x0000000000019010                libcudart_static_05a7ce2b595995101b43b8d30be821e1690eb43d
                0x00000000000190d0                libcudart_static_98f749947838bd7b4605292db9bf1fcea0f08d23
                0x00000000000190e0                libcudart_static_87f4bb0f05e62233579dd7d66c597681b9a49270
                0x00000000000193b0                libcudart_static_0120537e48febf5a33d2ba3cc8848315fe1f2b2f
                0x0000000000019490                libcudart_static_200ba5c1ee729f12f4781fe10920542365331a39
                0x0000000000019500                libcudart_static_cb738dbbc38240ea2f4343f189d56e937ec7dfd0
                0x0000000000019570                libcudart_static_677c44ebc2922648bac9abd14d885ce3c7acfa71
                0x00000000000195e0                libcudart_static_025dbd0cc166dae9e9dbbe8868e9286dd964062b
                0x0000000000019640                libcudart_static_688dd2c7a805687959c19062cd2b2b55d6b2ea69
                0x00000000000196b0                libcudart_static_eabca57b0eddaf5599bcce103eb90abb72be1c42
                0x0000000000019720                libcudart_static_31c5589f6cf16e869067f9a384ac10d42a6bdc19
                0x0000000000019790                libcudart_static_a8a7aed410ccd16c08ce0d8acc69f96bb4895cea
                0x0000000000019810                libcudart_static_92243811fb22c4d58a60252ff206bf78a2264e7d
                0x0000000000019880                libcudart_static_c6cbdfd878e6baeadeee27d177fa8250e3a55943
                0x00000000000198e0                libcudart_static_987592bd89d17b8676c47e3de865a81dcdd288ef
                0x00000000000199f0                libcudart_static_f5f8b322b0f68c45388c96ae4ee61926e1c35ee2
                0x0000000000019a60                libcudart_static_cad1160ff23cf0e6b82dc560ba2e729120250b4e
                0x0000000000019ad0                libcudart_static_fb71b6f85dc75440f3fe2398885a044e641c1180
                0x0000000000019b30                libcudart_static_6b5d87d2d98600e909bea59a3df6e590c9c42dba
                0x0000000000019bb0                libcudart_static_b63e1b72c4186d2b6489eb2dc83e87697879a6c8
                0x0000000000019c20                libcudart_static_642809c0e3b0cd78d04be00765ab15fce143776f
                0x0000000000019c90                libcudart_static_3cc0e8177c428447bf9e421ca5f7dd0933638577
                0x0000000000019cf0                libcudart_static_ae7905c9e50e61fa3450eee57b5060e080ca4216
                0x0000000000019d90                libcudart_static_d82b8865a89fbb6f49f6fb440189a6ce1f018567
                0x0000000000019e30                libcudart_static_5292edab93a49588dbf48156fea749b5116ad116
                0x0000000000019e50                libcudart_static_6dc593c7acecbf5f87384f583f9113c7bf08691e
                0x0000000000019ed0                libcudart_static_6ce1a6185f013df21fdfeb0922e3947375776654
                0x000000000001a000                libcudart_static_77693555d55c5b8c3b8fffac082f3f54aed660c0
                0x000000000001a060                libcudart_static_56a890debcd631b7eeebdae78bd1b638807712ac
                0x000000000001a120                libcudart_static_856049e99c73f81cb71a0701bb38691614c532cc
                0x000000000001a210                libcudart_static_f82a453e61cb06d279d0dc88b10e1cf74b3ec182
                0x000000000001a2e0                libcudart_static_9ae5ff2a160213bc55e45251f342a89de7283eb3
                0x000000000001a3a0                libcudart_static_0c4605ff7e082f54b90223dc2787942b5fd3145d
                0x000000000001a400                libcudart_static_79ea0f4e9e8fda40e2104b0a4d171fd8b4914938
                0x000000000001a4c0                libcudart_static_b9956150e6553df0a5fd585077af51063f91e8fc
                0x000000000001a520                libcudart_static_8efa79e514fc4631cda3882f0b8fcaefe9e1f1aa
                0x000000000001a570                libcudart_static_31a43a2120848939a5252f64d036665de1317837
                0x000000000001a5c0                libcudart_static_651078f47a8980607b1045d795e06b2c7b8930c5
                0x000000000001a650                libcudart_static_d7ebefb8f007a8f8376cfe42bef11a75a3ee03e7
                0x000000000001a6c0                libcudart_static_c354c85955f427fb9d864a2fb4f507469fd447e7
                0x000000000001a770                libcudart_static_076b03598c33c05307b367d1a5c671ebcfcece4b
                0x000000000001a800                libcudart_static_b41dfb40b48b59a5256b93b4116d3ac8a51b4be3
                0x000000000001a9b0                libcudart_static_4147067bb95fb5a394de5009762cf3f91972396e
                0x000000000001aaa0                libcudart_static_0e3a172ca0d0006dc3f427d5c9f79c9023964f38
                0x000000000001abe0                libcudart_static_250f4addbe738443f74ff7c556c1e8f14a7f49ce
                0x000000000001ac50                libcudart_static_8b53a38cb67460660f9062686b30dc9161468f46
                0x000000000001ad90                libcudart_static_09d9881361c650a7f58f50ca603936f6da30dfba
                0x000000000001aed0                libcudart_static_0e04557135a518daa8027f820e4c0292c0d80d64
                0x000000000001afe0                libcudart_static_3e72a4b5037ff2dd2910f90073ba8abae728a42a
                0x000000000001b050                libcudart_static_1b6e46ca70dfca2e3605542297d0fcdb39c477e7
                0x000000000001b160                libcudart_static_054bf9c3d7bb986e7a7b888ad235b1dd39b8c2aa
                0x000000000001b260                libcudart_static_15fe7cf85e120b47528406c2c1a63ea7c68c313e
                0x000000000001b480                libcudart_static_5a6457743e0cebd5be6592f1db8b24df0898f69f
                0x000000000001b6c0                libcudart_static_0a5077eea7798fa229430dc68ac62db78e943ef0
                0x000000000001b800                libcudart_static_a0addd331266522cefca3697ec0cdf5178fc7ed6
                0x000000000001b8b0                libcudart_static_8a9022d6211eadcf4fb3ee94018a7014fc77ec71
                0x000000000001b970                libcudart_static_9970734eee0498ed13ba29d1e1f1343501536954
                0x000000000001bb70                libcudart_static_09bc5cbb075616aa23a7fc12dc5b1d428283e648
                0x000000000001bd80                libcudart_static_eaa6e3cc1437a88167153dc46fb1faee9981e3be
                0x000000000001be80                libcudart_static_de0230ee4deb6085b373fec6853c01676137ff4b
                0x000000000001bec0                libcudart_static_71efe762f7aa35516a0cdd1069fcd4d8e42896f5
                0x000000000001bfb0                libcudart_static_d090228c0fb622785f9896f1ce5d7678973f3da1
                0x000000000001bff0                libcudart_static_c00bca2ec2cf79ec28125d352d6321457206167c
                0x000000000001c0a0                libcudart_static_59503a13a80b269a2ff303e56af872c46bf668ec
                0x000000000001c110                libcudart_static_511e3e51f5edfd6c943ba8229e28b08392dad9b8
                0x000000000001c130                libcudart_static_0ba8cb68f0a1934d0d6ac20afb1937358189a4b2
                0x000000000001c1e0                libcudart_static_d10acedb4a6cc7ebcc810b42126e6162b5514325
                0x000000000001c200                libcudart_static_947de1287fa249f369f92eeb29beab810c48ec45
                0x000000000001c290                libcudart_static_d7817f664a69b6b52f52f4d091ddec528330e439
                0x000000000001c320                libcudart_static_ebc1ba7fd9186e166ffe94589b2ae3b3609aaade
                0x000000000001c3a0                libcudart_static_64539560da61704e9772e7355e65ef05fb9a0f69
                0x000000000001c410                libcudart_static_d7226de375392eadf410031c120a2ec8d4a02db9
                0x000000000001c490                libcudart_static_aab0b86ebc6dcc02c6fae7bb30716a7744f3697e
                0x000000000001c530                libcudart_static_44b984cec8c0f85aa8594e6708aaaace3addd950
                0x000000000001c5b0                libcudart_static_bc89ae7f1104b56a6f09b8c5851dc76136d26a8f
                0x000000000001c630                libcudart_static_787188a017f8cbd0c5cd7622b97df89f195db64a
                0x000000000001c6d0                libcudart_static_bea0fb992b36b952ed4dab7125b02541badd6425
                0x000000000001c750                libcudart_static_c34859e0c7b9ef44563de00a3abf955d0782308e
                0x000000000001c7d0                libcudart_static_c133368759241c8f8bba5e69fc7e68e3611fdcb4
                0x000000000001c870                libcudart_static_4e8f0dd5e554179075bf1d18b9559baf16e0c801
                0x000000000001c8f0                libcudart_static_b39a03d003fd4eb9299a2de5470e431495171cdf
                0x000000000001c970                libcudart_static_b419c18bfa1375516f2e8913ad2cf61b1ec59dee
                0x000000000001ca10                libcudart_static_90f8be5270c3e41f63afcf4f3929737bff33c04f
                0x000000000001ca90                libcudart_static_9950a3c79eff7d7db0750b72ba6a32b959444487
                0x000000000001cb10                libcudart_static_304e251b1ef6a7009566d11124320fed5f506088
                0x000000000001cbb0                libcudart_static_ef885e07e03cc729e5d83b40b1567aa2599d02ff
                0x000000000001cc30                libcudart_static_04a9505fd0c5f54fa4d4be741eb05c739f49178c
                0x000000000001ccb0                libcudart_static_22cef94c031c1dbf8d526520b0ee275d7fb6bf67
                0x000000000001cd30                libcudart_static_df6129aea482ae6479c7782d99006fe8b4cadb10
                0x000000000001cd90                libcudart_static_7ed8fde4946d39cfa1232cbe0ca86d8eb29022e6
                0x000000000001cdf0                libcudart_static_efaee17e2b19c2bff116822a7b34c62a6828fc3f
                0x000000000001ce50                libcudart_static_c9ca010a139114812d5e4315e68012821ea79e3b
                0x000000000001cec0                libcudart_static_937d532074325db2c43bf186eee12cddcc444062
                0x000000000001cf30                libcudart_static_0caa701eabc2ae7635fc7032aa41d0883160dcc1
                0x000000000001d020                libcudart_static_94e07c247f20de1baa51004c01fc3c9fd92402ca
                0x000000000001d170                libcudart_static_fbe7cf22937a2a6b11e8bafb9deecf79992483c3
                0x000000000001d1e0                libcudart_static_da284d0a6fbf842d889b193ccc68a66ba2cc307f
                0x000000000001d250                libcudart_static_17a1b9006246eb96ec16461d991eafe4bc22ce13
                0x000000000001d2d0                libcudart_static_8f4f8e2775d92d3e8956dc3d906eb208a523a573
                0x000000000001d350                libcudart_static_eb46e5ca2e00d8f79e3f161f2c1913b6c97815e5
                0x000000000001d3c0                libcudart_static_a335dd26aefd82713ef8798800e5b0c0c4399326
                0x000000000001d440                libcudart_static_ccdb1cbd228dbd362f12fd4461cb5393ae411646
                0x000000000001d4b0                libcudart_static_c040d1f4884d0b931710e754253038a3fc0dd1b2
                0x000000000001d530                libcudart_static_064071eaced63ab29b8e1c081a306e28eb8bed25
                0x000000000001d5b0                libcudart_static_e1dd7cde1ea0e0bd3fdc7fd95e693b27b9901bc8
                0x000000000001d630                libcudart_static_7850de2291b03a79e2b26cca8a812dd7721a00e1
                0x000000000001d6b0                libcudart_static_5e3ece917a407a0137cda48c7d0c069280139952
                0x000000000001d730                libcudart_static_f9686793a5e809edf9ce21919af72da40c14558c
                0x000000000001d790                libcudart_static_3e45c59a2e8f97a77d8f5a68e115126b1450c788
                0x000000000001d800                libcudart_static_53aaa4a082816f0da884e0a9f8bcad3c24494f7a
                0x000000000001d870                libcudart_static_8e0ce7371c67543820880239e94d56ad47c6f844
                0x000000000001d910                libcudart_static_4bc6c36ae9e60aebe8d16a3831da21feafa5800a
                0x000000000001d980                libcudart_static_72f8aff7a00f2a0101e08116af44c2609e109ae6
                0x000000000001d9f0                libcudart_static_79007b61795c0bffcff9c47e3253f45d434ef9af
                0x000000000001da60                libcudart_static_819ffdfa04e6f9009934b05d154206104c153ab1
                0x000000000001dba0                libcudart_static_f4fa78622d3a720ec282942b943e71080d439a6d
                0x000000000001dc80                libcudart_static_b4dd5c7c7e90441fcb9d5800793f27a2def34ddc
                0x000000000001dec0                libcudart_static_f8d8202ee1eb48b4d0a09de53120a396ae906327
                0x000000000001e0f0                libcudart_static_13c3a42c8f67739ce503252650f5baeca4b0b8fe
                0x000000000001e220                libcudart_static_42f469dd77ac1f71fdfdcfb2ec8f2c1dfcdfea07
                0x000000000001e2f0                libcudart_static_45e68589a16aa098387917c4fde29839a58372e8
                0x000000000001e390                libcudart_static_e90d31e0b4762bd8b21a9a6e7adc56994ee04f65
                0x000000000001e420                libcudart_static_14019aab6349468888791a7b1c7ab43c2a95d62c
                0x000000000001e4b0                libcudart_static_2c0034bd5d480ab1f5d33e3eec2533853fa8b762
                0x000000000001e540                libcudart_static_980caf15ea96a66ea296a901a777eeeae11edc5e
                0x000000000001e5d0                libcudart_static_cb2ef94609bcbc36b14475282ffdcebc0207ac78
                0x000000000001e660                libcudart_static_fca93a461c081944fda73f4bc42467210e846589
                0x000000000001e6c0                libcudart_static_bdcc0f07ab5307756ba041da346d15065fd39da2
                0x000000000001e720                libcudart_static_ae71ae215855bab7db7b97b6475ebd7bf0eafcab
                0x000000000001e790                libcudart_static_c8762bc465052e17cf5e2a9e2f8556be48588a2c
                0x000000000001e800                libcudart_static_9bbdd5ca4a7c063204936dc6c5907f47dcddbefb
                0x000000000001e870                libcudart_static_88e030df28b70d99c880814b8cdd9dbec4666770
                0x000000000001e8e0                libcudart_static_c252ed9cb831aa5dcf8b9f755d8bd06045640941
                0x000000000001e940                libcudart_static_394bb5a1c816afcdedc9cf0adef069efbc351fab
                0x000000000001e9a0                libcudart_static_1584393bb0c3e2f2556116593999dc6af338ba56
                0x000000000001ea10                libcudart_static_05902afb70331f5262cbdb3171c40c03a21ab830
                0x000000000001ea80                libcudart_static_d9e5ec9d0c7f22a8646cbfcc5353715ec148a031
                0x000000000001eb10                libcudart_static_240ebc14a5a9586ffac4db793a615f584d3392af
                0x000000000001eba0                libcudart_static_412ada5174c054d91c57371e1445439157d9ad47
                0x000000000001ec10                libcudart_static_d6344351f519afe2d30a8a336bd505af33e646d6
                0x000000000001ec80                libcudart_static_5a4865b7cf17d0422c45e74a58e0da323ffb5b05
                0x000000000001ece0                libcudart_static_9c50cdbe0d11146f99923b7d792fc7c85fb0bd3f
                0x000000000001ed30                libcudart_static_b3b0b4468e068cdb998db52b88aa5db9e5ac22f6
                0x000000000001ee00                libcudart_static_13958e67ccd72df7ad1ee2771c165b164d9122b1
                0x000000000001eed0                libcudart_static_fd9e53aa84b96471257461a046fde0073aff3ddb
                0x000000000001efc0                libcudart_static_3ad7928907f28bb0329f2b0a3acd4d986dc4faf3
                0x000000000001f0b0                libcudart_static_a4eca98142ee9a3e208751680a971125b9623c97
                0x000000000001f1b0                libcudart_static_f6f9adb6a437f1d81a2d68f8068bf9a719cf493e
                0x000000000001f2b0                libcudart_static_4a007789dee08a35116ab0f4b530fb21c35659c9
                0x000000000001f3b0                libcudart_static_e6076f16f14ea77084e1810704a9666b6877b468
                0x000000000001f4b0                libcudart_static_54b1f2342969928bc5e4af68c1c61b5cffa736b8
                0x000000000001f530                libcudart_static_d947b8e606997c5196798ab4ae3330958cf7db70
                0x000000000001f5b0                libcudart_static_59ab45b2c0cde57786ae6e8e959cec90a7c216dd
                0x000000000001f630                libcudart_static_039517f5e6f5cca93798f1743483c3584002ddbb
                0x000000000001f6b0                libcudart_static_31df2e2b948b425ba97404c3bd3a914bf98e1805
                0x000000000001f720                libcudart_static_0167d5d750c2f8b3b59e4d6c946dde51a304756e
                0x000000000001f740                libcudart_static_47d672c1dd6972be33181da6bdd8eff233a987c9
                0x000000000001f7f0                libcudart_static_753190f3448bc2b67c38e88e5d140d9a766a5f96
                0x000000000001f860                libcudart_static_fb9d1884ea9347795b17fb47e120c7cffdeaa0ee
                0x000000000001f8c0                libcudart_static_33d9563017c30e7f77ffeedf95e64c9c6293665d
                0x000000000001f920                libcudart_static_f196ad5b0ca228d0e51d7970781f8d7f2cc72a22
                0x000000000001f980                libcudart_static_ffb73ce53294dcc645ee21f228bc10350c998bed
                0x000000000001f9e0                libcudart_static_1b162cdc3e6ac66db1e508b68ca3943e8131cd2a
                0x000000000001fa40                libcudart_static_d29ba8d496d59c305e98a4962d428b946800b49a
                0x000000000001fb60                libcudart_static_259d9628dbb1d087e6c014adf46ed500509de916
                0x000000000001fc90                libcudart_static_7b778ef92220f1e2816480b16ca450b57bc88b28
                0x000000000001fd90                libcudart_static_dde28759cb3478920afe24a5cfe5ffd4bcba899a
                0x000000000001fe90                libcudart_static_ba7b132a63ec902729d4dec9c4871d1be4e62d6b
                0x000000000001ff20                libcudart_static_9abc0e2424455421e545e819baac61816b439963
                0x000000000001ffb0                libcudart_static_83b478035bb816ebca15fda6c6fd8d1be4b0bb16
                0x0000000000020020                cudaGetExportTable
                0x0000000000020070                __cudaRegisterFatBinary
                0x00000000000200a0                __cudaRegisterFatBinaryEnd
                0x00000000000200d0                __cudaUnregisterFatBinary
                0x0000000000020110                __cudaRegisterVar
                0x0000000000020190                __cudaRegisterManagedVar
                0x0000000000020210                __cudaRegisterHostVar
                0x0000000000020250                __cudaRegisterFunction
                0x00000000000202c0                __cudaInitModule
                0x0000000000020390                __cudaPushCallConfiguration
                0x0000000000020420                __cudaPopCallConfiguration
                0x00000000000204e0                __cudaGetKernel
                0x0000000000020550                __cudaLaunchKernel
                0x0000000000020560                __cudaLaunchKernel_ptsz
                0x0000000000020570                __cudaRegisterUnifiedTable
                0x0000000000020be0                libcudart_static_75850eae7f28cc1e55e9fe1048eae31a136b4f28
                0x00000000000236b0                libcudart_static_50374f4ee1a016946da1e25d7be58d2655de05d7
                0x00000000000236b0                libcudart_static_59841e4f6353060d05656ff640865c37fa9e75ff
                0x00000000000236d0                libcudart_static_5126fa4855e2cb1933fb3a62b9d8253637eeebda
                0x00000000000236d0                libcudart_static_4a706318686f64fff74510ce8ac902159f77d2c2
                0x00000000000236f0                libcudart_static_147fd9a1dbf28ff3516c17c18a672de76a15fdd7
                0x00000000000236f0                libcudart_static_f58d78189b32a9cdecfddbc61123ea854f3322ec
                0x0000000000023760                libcudart_static_f3c292b6153bf43f50a532b8ac436083db562d6f
                0x0000000000023870                libcudart_static_963dbe518da27ad62a57079a1a0c90814a2710ec
                0x00000000000238c0                libcudart_static_972898e17ca59965f492b59106c8015842175ef1
                0x0000000000023940                libcudart_static_3897a3ef75e028bfeabe84cc9557d1b3c1f9189c
                0x0000000000023ab0                libcudart_static_405e80646114e144c7ba15c6b7e0aacccdb59dc7
                0x0000000000024530                libcudart_static_418eebf4e9b7463362b8385a31d08da131d0ea88
                0x0000000000024570                libcudart_static_d83112b48ad6c0c45820fdbef0d64eff96bd4715
                0x0000000000024b20                libcudart_static_10dac524d435aadb0bb1119bd5c2fe1ba79a73e8
                0x0000000000030ba0                libcudart_static_aa4a6bcb5fce58be20d542d9b467101e0a9360a5
                0x0000000000030d30                libcudart_static_0bf7336e71b5df655f7fe4ef2dea52179e6fcf82
                0x0000000000031190                libcudart_static_18b2506fb827f7d14fb569d87fa531d9c7475aac
                0x0000000000031da0                libcudart_static_80bb63be339e53f079b09a70b2985306b44b0afa
                0x0000000000031da0                libcudart_static_ec964c5a6f2f07d02d98f0ef7a6fae5575d2f352
                0x0000000000031e70                libcudart_static_99a84484ba9142cf98dd946a2771a22358685563
                0x0000000000031e70                libcudart_static_ba5248a5a6bd97fbb376f671dc130e34f94226c9
                0x0000000000033330                libcudart_static_c110d1e0e2ae52173086965841533e57d1e5fded
                0x0000000000033360                libcudart_static_1ba72940c71e33000609e70f2d4815ed07c746c5
                0x00000000000336c0                libcudart_static_009a103bf0390f205162ce6b644a1fc9070c5ae7
                0x0000000000033a20                libcudart_static_252eaf4e4cb7cb584d2040de8f2f86746e6ec606
                0x0000000000033ab0                libcudart_static_0b128daca035e93942d74842b8bd50fdfa8a240a
                0x0000000000034350                libcudart_static_58c61c4f87da7c35f76ee0f1270c6e8e2eaa0ab1
                0x0000000000034390                libcudart_static_2d9184c09481561aad56702033c1557d202d5ec0
                0x0000000000034470                libcudart_static_6c801a42fb3decffab451589a2ac93a22b41c3ef
                0x0000000000034550                libcudart_static_403615965620dea3cb1ebcc9b1da3291422bc2d9
                0x0000000000034600                libcudart_static_ee75ef2eb480859bfa59035b5da4de8e90931316
                0x00000000000346c0                libcudart_static_2da54112d4b613bf869630bd049efb4ce33d0b6c
                0x00000000000346f0                libcudart_static_bc3ab04d58f69d69f683b7a5bd74306a5f246783
                0x00000000000346f0                libcudart_static_ff605ab97b96ab528ce5a7bca18c5d76d3e48080
                0x0000000000034700                libcudart_static_60e2aca2a19b9f181a9f67f6551293a85cd544f8
                0x0000000000034700                libcudart_static_4c5df527363ad666532caed5905be5fc18ce8c32
                0x0000000000034770                libcudart_static_1bae97358ecc07a010d28b495cb5ee35353cafae
                0x00000000000347e0                libcudart_static_76a125a71b5a557a55dda5b7bcab25d92df5527b
                0x0000000000034800                libcudart_static_114d9cfa58f4beeac1398d86ae80b153920362d0
                0x0000000000034840                libcudart_static_218022540610ea68b33500e9621b9316652b9474
                0x00000000000348e0                libcudart_static_ab83cda3b0b92833247b7e9aae58b3bffb950f40
                0x00000000000349c0                libcudart_static_cc98fd32adb8becec54069f4e1382e1c89cc974a
                0x0000000000034a00                libcudart_static_3462ca48ad275c7505baca405edcaaf7cf0dfb14
                0x0000000000036410                libcudart_static_4c573df439a7675747de4ac8a0dfd2077e471dc7
                0x0000000000036540                libcudart_static_a18a1a9e7aa749169a65409d638e10b9bd849c48
                0x0000000000036570                libcudart_static_37a0193ea197bbbd83d9621d3f0950728c641d56
                0x0000000000036730                libcudart_static_dc1649d3b10aa81ceb20adbb1034ad674b528835
                0x0000000000036790                libcudart_static_5d14875c10d43681d67f6ace3b6f731fee4f78cd
                0x0000000000036bd0                libcudart_static_b2ed8d6b741d426de12c023ace2bf1d4ee8d6ca5
                0x0000000000036c60                libcudart_static_d785b12dfb271fceaafec46559445a6dcc3a2549
                0x0000000000036d20                libcudart_static_6f97ac2ef0fa7ed82dbb2bebf9ebdc52e306101a
                0x0000000000036d30                libcudart_static_c8c58655fe237b88dca1864bea3cd001f74573f4
                0x0000000000036d50                libcudart_static_0c26fcb14a578bdcc02f7175892711b93b6211aa
                0x0000000000036d60                libcudart_static_cd374e5431b3b2c51eb3011e9592dc24001b1b8a
                0x0000000000036e30                libcudart_static_b60ce2d80dde8c1e6fff7ce91e79df7041571f2c
                0x0000000000036f00                libcudart_static_691c08e8649dc40922a6fae3c74d97e4b6c58c7b
                0x0000000000036f30                libcudart_static_bf75d3fb4d1836f42a3c2a8a3f9a215f76cf2991
                0x0000000000036f60                libcudart_static_bc00e2a8439fb0c89a6124e47b71baa6c2c1561e
                0x0000000000036f60                libcudart_static_1846a4a51292645bacfa4f99651563f4cfeb72eb
                0x0000000000036fb0                libcudart_static_4b077e08018b6d0fcf5667ce57f2baf06e806d98
                0x0000000000036fb0                libcudart_static_3632e4266ff081452faa85b56a2ff7736d8f6f90
                0x0000000000036ff0                libcudart_static_8846239b87eac4d4994c590436c3809bd9c4da16
                0x0000000000037000                libcudart_static_1ac887143a9696ff49bf391c58607c4a53d5a917
                0x0000000000037040                libcudart_static_0015af517c6b0ea12fc26b0200f981fa0b7ad4b2
                0x0000000000037140                libcudart_static_8c6f8a1269a516b1da2ef92c55996bed296a1bd2
                0x0000000000037240                libcudart_static_a4ee1a555c198ffe3e52eafec8be9f1e948110d0
                0x0000000000037240                libcudart_static_7e62c988f94c5044ca1f93d08e856a29ee10e195
                0x00000000000372d0                libcudart_static_1f17b7595024bba11421e110bd8c06bebe5bd469
                0x00000000000372d0                libcudart_static_98a46585d88f322c3c5cc3b5ac6e3ddb5d946887
                0x0000000000037920                libcudart_static_ac93fa8b23bbb91cfe333a0b85e137c10300e424
                0x0000000000037a20                libcudart_static_2369b246cc952badcfa5311ee4767fae824f7e57
                0x0000000000037bd0                libcudart_static_cedd55564cbba51550c6188cb39110cecb614947
                0x0000000000038230                libcudart_static_868c5e42725f73d5891f87788394345e4898dd12
                0x00000000000384e0                libcudart_static_492e7e682d9588a0f38049487efb74eec4e15dde
                0x00000000000385f0                libcudart_static_6afaae3438635b41d2da1ffb2fb2a9c1de849cf6
                0x0000000000038700                libcudart_static_1730c65cd8c33285d2db3baf0c5ad8a3a79bb8f2
                0x0000000000039310                libcudart_static_b219bbfad91f6030631237d8e863d3716cd2eec4
                0x0000000000039400                libcudart_static_2482ecad63b060cec9ae6e7087f945c7bf1f701b
                0x00000000000395a0                libcudart_static_4bf676dde1fc86e251a172a4d11f12c36ebe052b
                0x0000000000039790                libcudart_static_1ac9666ae3228d9176f202470af86cd7d141880d
                0x000000000003a300                libcudart_static_9b80b0c9d277af7c4fc78d2a27f91d6c39653fea
                0x000000000003a6a0                libcudart_static_7d13939192e3f204755a6b7d3ffa2702cd991c58
                0x000000000003aa40                libcudart_static_64e6065cc700b21ed7c18f4f5d6b380abeac3b78
                0x000000000003b280                libcudart_static_36ecffef451fb2da0dfc7cde338d9561352294f7
                0x000000000003b4a0                libcudart_static_5c2db390a80217934040b55cddb012b4c3385cb0
                0x000000000003b8d0                libcudart_static_1336c83821286b166bd4d2d76123f996491af24e
                0x000000000003c420                libcudart_static_235eb9a54d08c06fbd6d0f7333470b9c22850066
                0x000000000003ccd0                libcudart_static_5182f0612abf97ba8c4c34a452a25a3914d0bdd0
                0x000000000003d5a0                libcudart_static_42c06717b9ed6fd4b8a1e00aff116e98da2ddc7f
                0x000000000003d6e0                libcudart_static_bd3f8e45deeb87ae2610db15cb01148f131506fe
                0x000000000003d8d0                libcudart_static_5449a5077e9603031b6d1a024d25647afd27a0ba
                0x000000000003da20                libcudart_static_789c7e2d1d363ce9ba0a7cb3fa664ecd00bd7093
                0x000000000003da90                libcudart_static_ad9262876fc0252a7a95dbc876859d40746b0b56
                0x000000000003dcf0                libcudart_static_aa1009c00ed674ea5549aec2fe947f8983789fac
                0x000000000003dd20                libcudart_static_0298c82c2411f5e795c88f74085a1f54bd2ce581
                0x000000000003de40                libcudart_static_f42823eff6fdf8256206ff5074e0e1ff34faa0d6
                0x000000000003e150                libcudart_static_817f7f547acc72192670add600f50c96569de230
                0x000000000003e6e0                libcudart_static_feac7ad6ac7bb0c19f3525629332495d0395e575
                0x000000000003ea00                libcudart_static_35d46c50de295554f3b174a5780109d274b3dadf
                0x000000000003ea60                libcudart_static_ea3eded7eefab347c4da8808aa08c53458c3ca5d
                0x000000000003ed90                libcudart_static_6551d10f2045f247eb1d3aace158b32d725d1e71
                0x000000000003f0c0                libcudart_static_80fd24ddd9f12e3a41fc271a3e0153ddb1b85829
                0x000000000003f970                libcudart_static_2207bb9c0d70ebfe39913c2b689ba85f9c2b3228
                0x0000000000040320                libcudart_static_2310668c47d6f4457a6081fe2193ae3ce5ab911c
                0x0000000000040cc0                libcudart_static_37b4175e3368622532337677b993e8c3cdcad9c7
                0x0000000000040e80                libcudart_static_7c31c90281509fd08ada8ac6a8a426995cf12c44
                0x0000000000041300                libcudart_static_77a9cbac777f78a0b1442da52f8a08da55fd68d6
                0x0000000000041920                libcudart_static_19d132c815f85334ee1756d16281ce95ea02e148
                0x00000000000419f0                libcudart_static_55933408c48f6331937ba85ffd39e8ce2f0d75bd
                0x0000000000041b10                libcudart_static_9760db43f506ad5dfeb94fe8e0178b6357a850a0
                0x0000000000041ee0                libcudart_static_0056bd523cc9f704dca4e91ee8c0547f1309e92f
                0x0000000000041ef0                libcudart_static_cd7c91532a2584d2b4fe9ce1889e54f5578a09f6
                0x0000000000041fd0                libcudart_static_1e097129021a30eb455613b33ade9eaf6a9bd243
                0x00000000000427c0                libcudart_static_5c4efc2ef34ff3d8c74dea10c035c32c3488ee7e
                0x0000000000042870                libcudart_static_7844ba61b5199c1a774920d14a869de661d18e01
                0x0000000000043590                libcudart_static_e72d922d4adf9547de5de97f2fd4fbb985c31a43
                0x0000000000043a80                libcudart_static_806b5fb1b92839e1421e30df464ce97f72fcc100
                0x0000000000044050                libcudart_static_1ab6b8ba540e44ed023f1aa789e8b4c440e8f1dd
                0x0000000000044570                libcudart_static_2086eed45c58ae3469eaf611a4b033fd2cf34961
                0x0000000000044b50                libcudart_static_dcabf0667e15fc60eea182b89691c21b269ebea1
                0x0000000000045130                libcudart_static_26569f8735daf62345ddca5340a1d88784594dee
                0x0000000000045710                libcudart_static_666f2d04e6264b1aad89e7e6c70f2a00ab426468
                0x0000000000045d00                libcudart_static_a1d7d07cb072735639808c21aa73f5f5c8706870
                0x00000000000462f0                libcudart_static_2ec94c8c92cc8f907a18af24b2e2220f04b2f1fb
                0x0000000000046ae0                libcudart_static_a566c078692988940b926e04b271684ac3061b2f
                0x00000000000472d0                libcudart_static_28b60c4d80b48e8472f72c08e4698b537a0d6e3d
                0x0000000000047ab0                libcudart_static_f142671d15ec9cb27e648d1619da3cdda63e280c
                0x0000000000048270                libcudart_static_ccfe090ac6564290cc407e6e618d9a92d0499bab
                0x00000000000484d0                libcudart_static_39abd76966a8cfe15b261c5341cb8f3d4397f213
                0x00000000000484f0                libcudart_static_5382377d5c772c9d197c0cda9fd9742ee6ad893c
                0x0000000000048550                libcudart_static_dd7c6bfd64e486ac0b13293679bb2b3a416f8f8b
                0x00000000000485b0                libcudart_static_fac263ac15a6717e4165835c3ae6d463859e2f23
                0x00000000000485e0                libcudart_static_3379973baff0849ee3fa8451bb362d32d30d139a
                0x0000000000048600                libcudart_static_8b73e19b9b6fb2b44091792b23d85fe1faddb831
                0x0000000000048660                libcudart_static_ebefc60b9b0e9ae42d1acb84c209bfbf5d9232d4
                0x00000000000486e0                libcudart_static_3874f5533f709720bf1b7fc6982c39a6595b6c8b
                0x0000000000048700                libcudart_static_c9de92b719200ece6bb0094448ea0fc20e3388c8
                0x0000000000048890                libcudart_static_cd543aef7e094d5eb2a4778f766c85fa67b52f10
                0x0000000000048a20                libcudart_static_e760a7280bc1af45ef561886abc194823c5edadb
                0x0000000000048b70                libcudart_static_1310e5fb72b7ef3b631832b7a0c7e3ebdd0f4cc9
                0x0000000000048cc0                libcudart_static_f74464c939d62bc41b7ee4aa62d29003f7881c10
                0x0000000000048d40                libcudart_static_8c6a7f7ac08fb22f9220aeebb14beff44fd4a206
                0x0000000000048e20                libcudart_static_c7069eb0f366e48aabf6523aac98ec66807a66e1
                0x0000000000048f30                libcudart_static_1afcb39d6ef00c58ddef6a72b87cd47891c72a55
                0x0000000000049040                libcudart_static_81802d30ecc8e255537a4f41a2ba1ad72fc22354
                0x0000000000049180                libcudart_static_c18308b620fb5f9a5c78dd2c8e8932c7be66c2e9
                0x00000000000491e0                libcudart_static_9358e07e5bc1a9ad60adde991f454b01a9b566ab
                0x0000000000049260                libcudart_static_8db6bec9ed1e7fd3acf71459cb065c4ce8fda22e
                0x00000000000496c0                libcudart_static_79f8f2b7fb48b442235a3a3fd28fb3624867db74
                0x0000000000049ba0                libcudart_static_bb4891c5aa02b25a0cbdaa27c62fd6ebd88c1f5a
                0x000000000004a440                libcudart_static_62bf97ede6676c12dc2198cbd9638c874b553f59
                0x000000000004a4b0                libcudart_static_fca1b0894a32e482d29975823477c8ddbd44e922
                0x000000000004a520                libcudart_static_3e3e0cdcb7157bcc1517bd75ca7337383cefa047
                0x000000000004a5b0                libcudart_static_3f103a57ddfd507ee35d808442f58b48a84ecb0e
                0x000000000004a640                libcudart_static_b4edcbf375967f5fb986db8e8bdc973f92f75eee
                0x000000000004abc0                libcudart_static_81ce39fdd8a76809fdfb6fec7b2257b3b067aece
                0x000000000004b010                libcudart_static_f0f17dd2caa87e43965bc76557e6b5c5c54aac60
                0x000000000004b3a0                libcudart_static_84455ef645bd64118bdb5d7187c33a7e3780ec53
                0x000000000004b3f0                libcudart_static_d99c35b00eb0bcb7fd03131bd02848bb89fcd690
                0x000000000004b5f0                cudaDeviceReset
                0x000000000004b760                cudaDeviceSynchronize
                0x000000000004b8d0                cudaDeviceSetLimit
                0x000000000004baa0                cudaDeviceGetLimit
                0x000000000004bc70                cudaDeviceGetTexture1DLinearMaxWidth
                0x000000000004be60                cudaDeviceGetCacheConfig
                0x000000000004c020                cudaDeviceGetStreamPriorityRange
                0x000000000004c1f0                cudaDeviceSetCacheConfig
                0x000000000004c3b0                cudaDeviceGetByPCIBusId
                0x000000000004c580                cudaDeviceGetPCIBusId
                0x000000000004c770                cudaIpcGetEventHandle
                0x000000000004c940                cudaIpcOpenEventHandle
                0x000000000004cb90                cudaIpcGetMemHandle
                0x000000000004cd60                cudaIpcOpenMemHandle
                0x000000000004cfd0                cudaIpcCloseMemHandle
                0x000000000004d190                cudaDeviceFlushGPUDirectRDMAWrites
                0x000000000004d360                cudaDeviceRegisterAsyncNotification
                0x000000000004d570                cudaDeviceUnregisterAsyncNotification
                0x000000000004d740                cudaDeviceGetSharedMemConfig
                0x000000000004d900                cudaDeviceSetSharedMemConfig
                0x000000000004dac0                cudaThreadExit
                0x000000000004dc30                cudaThreadSynchronize
                0x000000000004dda0                cudaThreadSetLimit
                0x000000000004df70                cudaThreadGetLimit
                0x000000000004e140                cudaThreadGetCacheConfig
                0x000000000004e300                cudaThreadSetCacheConfig
                0x000000000004e4c0                cudaGetLastError
                0x000000000004e630                cudaPeekAtLastError
                0x000000000004e7a0                cudaGetErrorName
                0x000000000004e900                cudaGetErrorString
                0x000000000004ea60                cudaGetDeviceCount
                0x000000000004ec10                cudaGetDeviceProperties_v2
                0x000000000004ede0                cudaDeviceGetAttribute
                0x000000000004efd0                cudaDeviceGetDefaultMemPool
                0x000000000004f1a0                cudaDeviceSetMemPool
                0x000000000004f370                cudaDeviceGetMemPool
                0x000000000004f540                cudaDeviceGetNvSciSyncAttributes
                0x000000000004f730                cudaDeviceGetP2PAttribute
                0x000000000004f940                cudaChooseDevice
                0x000000000004fb10                cudaInitDevice
                0x000000000004fd00                cudaSetDevice
                0x000000000004feb0                cudaGetDevice
                0x0000000000050060                cudaSetValidDevices
                0x0000000000050230                cudaSetDeviceFlags
                0x00000000000503e0                cudaGetDeviceFlags
                0x00000000000505a0                cudaStreamCreate
                0x0000000000050760                cudaStreamCreateWithFlags
                0x0000000000050930                cudaStreamCreateWithPriority
                0x0000000000050b20                cudaStreamGetPriority_ptsz
                0x0000000000050cf0                cudaStreamGetFlags_ptsz
                0x0000000000050ec0                cudaStreamGetId_ptsz
                0x0000000000051090                cudaCtxResetPersistingL2Cache
                0x0000000000051200                cudaStreamCopyAttributes_ptsz
                0x00000000000513d0                cudaStreamGetAttribute_ptsz
                0x00000000000515c0                cudaStreamSetAttribute_ptsz
                0x00000000000517b0                cudaStreamDestroy
                0x0000000000051970                cudaStreamWaitEvent_ptsz
                0x0000000000051b40                cudaStreamAddCallback_ptsz
                0x0000000000051d40                cudaStreamSynchronize_ptsz
                0x0000000000051f00                cudaStreamQuery_ptsz
                0x00000000000520c0                cudaStreamAttachMemAsync_ptsz
                0x00000000000522c0                cudaStreamBeginCapture_ptsz
                0x0000000000052490                cudaStreamBeginCaptureToGraph_ptsz
                0x00000000000526e0                cudaThreadExchangeStreamCaptureMode
                0x00000000000528a0                cudaStreamEndCapture_ptsz
                0x0000000000052a70                cudaStreamIsCapturing_ptsz
                0x0000000000052c40                cudaStreamGetCaptureInfo_v2_ptsz
                0x0000000000052eb0                cudaStreamGetCaptureInfo_v3_ptsz
                0x0000000000053120                cudaStreamUpdateCaptureDependencies_ptsz
                0x0000000000053320                cudaStreamUpdateCaptureDependencies_v2_ptsz
                0x0000000000053540                cudaEventCreate
                0x0000000000053700                cudaEventCreateWithFlags
                0x00000000000538d0                cudaEventRecord_ptsz
                0x0000000000053aa0                cudaEventRecordWithFlags_ptsz
                0x0000000000053c70                cudaEventQuery
                0x0000000000053e30                cudaEventSynchronize
                0x0000000000053ff0                cudaEventDestroy
                0x00000000000541b0                cudaEventElapsedTime
                0x00000000000543a0                cudaImportExternalMemory
                0x0000000000054570                cudaExternalMemoryGetMappedBuffer
                0x0000000000054760                cudaExternalMemoryGetMappedMipmappedArray
                0x0000000000054950                cudaDestroyExternalMemory
                0x0000000000054b10                cudaImportExternalSemaphore
                0x0000000000054ce0                cudaSignalExternalSemaphoresAsync_v2_ptsz
                0x0000000000054ee0                cudaWaitExternalSemaphoresAsync_v2_ptsz
                0x00000000000550e0                cudaDestroyExternalSemaphore
                0x00000000000552a0                cudaLaunchKernel_ptsz
                0x0000000000055570                cudaLaunchKernelExC_ptsz
                0x0000000000055790                cudaLaunchCooperativeKernel_ptsz
                0x0000000000055a60                cudaLaunchCooperativeKernelMultiDevice
                0x0000000000055c50                cudaFuncSetCacheConfig
                0x0000000000055e20                cudaFuncGetAttributes
                0x0000000000055ff0                cudaFuncSetAttribute
                0x00000000000561e0                cudaFuncGetName
                0x00000000000563b0                cudaFuncGetParamInfo
                0x00000000000565c0                cudaSetDoubleForDevice
                0x0000000000056780                cudaSetDoubleForHost
                0x0000000000056940                cudaLaunchHostFunc_ptsz
                0x0000000000056b10                cudaFuncSetSharedMemConfig
                0x0000000000056ce0                cudaOccupancyMaxActiveBlocksPerMultiprocessor
                0x0000000000056ef0                cudaOccupancyAvailableDynamicSMemPerBlock
                0x0000000000057100                cudaOccupancyMaxActiveBlocksPerMultiprocessorWithFlags
                0x0000000000057340                cudaOccupancyMaxPotentialClusterSize
                0x0000000000057530                cudaOccupancyMaxActiveClusters
                0x0000000000057720                cudaMallocManaged
                0x0000000000057910                cudaMalloc
                0x0000000000057ae0                cudaMallocHost
                0x0000000000057cb0                cudaMallocPitch
                0x0000000000057ec0                cudaMallocArray
                0x00000000000580f0                cudaFree
                0x00000000000582a0                cudaFreeHost
                0x0000000000058450                cudaFreeArray
                0x0000000000058600                cudaFreeMipmappedArray
                0x00000000000587c0                cudaHostAlloc
                0x00000000000589a0                cudaHostRegister
                0x0000000000058b90                cudaHostUnregister
                0x0000000000058d50                cudaHostGetDevicePointer
                0x0000000000058f30                cudaHostGetFlags
                0x0000000000059100                cudaMalloc3D
                0x0000000000059300                cudaMalloc3DArray
                0x0000000000059540                cudaMallocMipmappedArray
                0x00000000000597a0                cudaGetMipmappedArrayLevel
                0x0000000000059990                cudaMemcpy3D_ptds
                0x0000000000059b50                cudaMemcpy3DPeer_ptds
                0x0000000000059d10                cudaMemcpy3DAsync_ptsz
                0x0000000000059ee0                cudaMemcpy3DPeerAsync_ptsz
                0x000000000005a0b0                cudaMemGetInfo
                0x000000000005a280                cudaArrayGetInfo
                0x000000000005a4c0                cudaArrayGetPlane
                0x000000000005a6b0                cudaArrayGetMemoryRequirements
                0x000000000005a8a0                cudaMipmappedArrayGetMemoryRequirements
                0x000000000005aa90                cudaArrayGetSparseProperties
                0x000000000005ac60                cudaMipmappedArrayGetSparseProperties
                0x000000000005ae30                cudaMemcpy_ptds
                0x000000000005b040                cudaMemcpyPeer
                0x000000000005b280                cudaMemcpy2D_ptds
                0x000000000005b500                cudaMemcpy2DToArray_ptds
                0x000000000005b790                cudaMemcpy2DFromArray_ptds
                0x000000000005ba20                cudaMemcpy2DArrayToArray_ptds
                0x000000000005bcc0                cudaMemcpyToSymbol_ptds
                0x000000000005bf00                cudaMemcpyFromSymbol_ptds
                0x000000000005c140                cudaMemcpyAsync_ptsz
                0x000000000005c360                cudaMemcpyPeerAsync
                0x000000000005c5a0                cudaMemcpy2DAsync_ptsz
                0x000000000005c820                cudaMemcpy2DToArrayAsync_ptsz
                0x000000000005cac0                cudaMemcpy2DFromArrayAsync_ptsz
                0x000000000005cd60                cudaMemcpyToSymbolAsync_ptsz
                0x000000000005cfa0                cudaMemcpyFromSymbolAsync_ptsz
                0x000000000005d1e0                cudaMemset_ptds
                0x000000000005d3d0                cudaMemset2D_ptds
                0x000000000005d610                cudaMemset3D_ptds
                0x000000000005d860                cudaMemsetAsync_ptsz
                0x000000000005da60                cudaMemset2DAsync_ptsz
                0x000000000005dca0                cudaMemset3DAsync_ptsz
                0x000000000005def0                cudaGetSymbolAddress
                0x000000000005e0c0                cudaGetSymbolSize
                0x000000000005e290                cudaMemPrefetchAsync_ptsz
                0x000000000005e490                cudaMemPrefetchAsync_v2_ptsz
                0x000000000005e6b0                cudaMemAdvise
                0x000000000005e8c0                cudaMemAdvise_v2
                0x000000000005ead0                cudaMemRangeGetAttribute
                0x000000000005ed10                cudaMemRangeGetAttributes
                0x000000000005ef70                cudaMemcpyToArray_ptds
                0x000000000005f1d0                cudaMemcpyFromArray_ptds
                0x000000000005f430                cudaMemcpyArrayToArray_ptds
                0x000000000005f6c0                cudaMemcpyToArrayAsync_ptsz
                0x000000000005f930                cudaMemcpyFromArrayAsync_ptsz
                0x000000000005fba0                cudaMallocAsync_ptsz
                0x000000000005fd90                cudaFreeAsync_ptsz
                0x000000000005ff60                cudaMemPoolTrimTo
                0x0000000000060130                cudaMemPoolSetAttribute
                0x0000000000060320                cudaMemPoolGetAttribute
                0x0000000000060510                cudaMemPoolSetAccess
                0x0000000000060700                cudaMemPoolGetAccess
                0x00000000000608f0                cudaMemPoolCreate
                0x0000000000060ac0                cudaMemPoolDestroy
                0x0000000000060c80                cudaMallocFromPoolAsync_ptsz
                0x0000000000060e80                cudaMemPoolExportToShareableHandle
                0x0000000000061090                cudaMemPoolImportFromShareableHandle
                0x00000000000612a0                cudaMemPoolExportPointer
                0x0000000000061470                cudaMemPoolImportPointer
                0x0000000000061660                cudaPointerGetAttributes
                0x0000000000061830                cudaDeviceCanAccessPeer
                0x0000000000061a20                cudaDeviceEnablePeerAccess
                0x0000000000061bf0                cudaDeviceDisablePeerAccess
                0x0000000000061db0                cudaGraphicsUnregisterResource
                0x0000000000061f70                cudaGraphicsResourceSetMapFlags
                0x0000000000062140                cudaGraphicsMapResources
                0x0000000000062310                cudaGraphicsUnmapResources
                0x00000000000624e0                cudaGraphicsResourceGetMappedPointer
                0x00000000000626d0                cudaGraphicsSubResourceGetMappedArray
                0x00000000000628e0                cudaGraphicsResourceGetMappedMipmappedArray
                0x0000000000062ab0                cudaGetChannelDesc
                0x0000000000062c80                cudaCreateChannelDesc
                0x0000000000062ea0                cudaCreateTextureObject
                0x00000000000630e0                cudaDestroyTextureObject
                0x00000000000632a0                cudaGetTextureObjectResourceDesc
                0x0000000000063470                cudaGetTextureObjectTextureDesc
                0x0000000000063640                cudaGetTextureObjectResourceViewDesc
                0x0000000000063810                cudaCreateSurfaceObject
                0x00000000000639e0                cudaDestroySurfaceObject
                0x0000000000063ba0                cudaGetSurfaceObjectResourceDesc
                0x0000000000063d70                cudaDriverGetVersion
                0x0000000000063f10                cudaRuntimeGetVersion
                0x00000000000640b0                cudaGraphCreate
                0x0000000000064280                cudaGraphAddKernelNode
                0x00000000000644c0                cudaGraphKernelNodeGetParams
                0x0000000000064690                cudaGraphKernelNodeSetParams
                0x0000000000064860                cudaGraphKernelNodeCopyAttributes
                0x0000000000064a30                cudaGraphKernelNodeGetAttribute
                0x0000000000064c20                cudaGraphKernelNodeSetAttribute
                0x0000000000064e10                cudaGraphAddMemcpyNode
                0x0000000000065050                cudaGraphAddMemcpyNodeToSymbol
                0x00000000000652f0                cudaGraphAddMemcpyNodeFromSymbol
                0x0000000000065590                cudaGraphAddMemcpyNode1D
                0x0000000000065820                cudaGraphMemcpyNodeGetParams
                0x00000000000659f0                cudaGraphMemcpyNodeSetParams
                0x0000000000065bc0                cudaGraphMemcpyNodeSetParamsToSymbol
                0x0000000000065e20                cudaGraphMemcpyNodeSetParamsFromSymbol
                0x0000000000066080                cudaGraphMemcpyNodeSetParams1D
                0x00000000000662c0                cudaGraphAddMemsetNode
                0x0000000000066500                cudaGraphMemsetNodeGetParams
                0x00000000000666d0                cudaGraphMemsetNodeSetParams
                0x00000000000668a0                cudaGraphAddHostNode
                0x0000000000066ae0                cudaGraphHostNodeGetParams
                0x0000000000066cb0                cudaGraphHostNodeSetParams
                0x0000000000066e80                cudaGraphAddChildGraphNode
                0x00000000000670c0                cudaGraphChildGraphNodeGetGraph
                0x0000000000067290                cudaGraphAddEmptyNode
                0x00000000000674a0                cudaGraphAddEventRecordNode
                0x00000000000676e0                cudaGraphEventRecordNodeGetEvent
                0x00000000000678b0                cudaGraphEventRecordNodeSetEvent
                0x0000000000067a80                cudaGraphAddEventWaitNode
                0x0000000000067cc0                cudaGraphEventWaitNodeGetEvent
                0x0000000000067e90                cudaGraphEventWaitNodeSetEvent
                0x0000000000068060                cudaGraphAddExternalSemaphoresSignalNode
                0x00000000000682a0                cudaGraphExternalSemaphoresSignalNodeGetParams
                0x0000000000068470                cudaGraphExternalSemaphoresSignalNodeSetParams
                0x0000000000068640                cudaGraphAddExternalSemaphoresWaitNode
                0x0000000000068880                cudaGraphExternalSemaphoresWaitNodeGetParams
                0x0000000000068a50                cudaGraphExternalSemaphoresWaitNodeSetParams
                0x0000000000068c20                cudaGraphAddMemAllocNode
                0x0000000000068e60                cudaGraphMemAllocNodeGetParams
                0x0000000000069030                cudaGraphAddMemFreeNode
                0x0000000000069270                cudaGraphMemFreeNodeGetParams
                0x0000000000069440                cudaDeviceGraphMemTrim
                0x0000000000069600                cudaDeviceGetGraphMemAttribute
                0x00000000000697f0                cudaDeviceSetGraphMemAttribute
                0x00000000000699e0                cudaGraphClone
                0x0000000000069bb0                cudaGraphNodeFindInClone
                0x0000000000069da0                cudaGraphNodeGetType
                0x0000000000069f70                cudaGraphGetNodes
                0x000000000006a160                cudaGraphGetRootNodes
                0x000000000006a350                cudaGraphGetEdges
                0x000000000006a590                cudaGraphGetEdges_v2
                0x000000000006a7d0                cudaGraphNodeGetDependencies
                0x000000000006a9c0                cudaGraphNodeGetDependencies_v2
                0x000000000006ac00                cudaGraphNodeGetDependentNodes
                0x000000000006adf0                cudaGraphNodeGetDependentNodes_v2
                0x000000000006b030                cudaGraphAddDependencies
                0x000000000006b240                cudaGraphAddDependencies_v2
                0x000000000006b4a0                cudaGraphRemoveDependencies
                0x000000000006b6b0                cudaGraphRemoveDependencies_v2
                0x000000000006b910                cudaGraphDestroyNode
                0x000000000006bad0                cudaGraphInstantiate
                0x000000000006bcc0                cudaGraphInstantiateWithFlags
                0x000000000006beb0                cudaGraphInstantiateWithParams_ptsz
                0x000000000006c0a0                cudaGraphExecGetFlags
                0x000000000006c270                cudaGraphExecKernelNodeSetParams
                0x000000000006c460                cudaGraphExecMemcpyNodeSetParams
                0x000000000006c650                cudaGraphExecMemcpyNodeSetParamsToSymbol
                0x000000000006c8d0                cudaGraphExecMemcpyNodeSetParamsFromSymbol
                0x000000000006cb50                cudaGraphExecMemcpyNodeSetParams1D
                0x000000000006cdc0                cudaGraphExecMemsetNodeSetParams
                0x000000000006cfb0                cudaGraphExecHostNodeSetParams
                0x000000000006d1a0                cudaGraphExecChildGraphNodeSetParams
                0x000000000006d390                cudaGraphExecEventRecordNodeSetEvent
                0x000000000006d580                cudaGraphExecEventWaitNodeSetEvent
                0x000000000006d770                cudaGraphExecExternalSemaphoresSignalNodeSetParams
                0x000000000006d960                cudaGraphExecExternalSemaphoresWaitNodeSetParams
                0x000000000006db50                cudaGraphNodeSetEnabled
                0x000000000006dd40                cudaGraphNodeGetEnabled
                0x000000000006df30                cudaGraphExecUpdate
                0x000000000006e120                cudaGraphUpload_ptsz
                0x000000000006e2f0                cudaGraphLaunch_ptsz
                0x000000000006e4c0                cudaGraphExecDestroy
                0x000000000006e680                cudaGraphDestroy
                0x000000000006e840                cudaGraphDebugDotPrint
                0x000000000006ea30                cudaUserObjectCreate
                0x000000000006ec70                cudaUserObjectRetain
                0x000000000006ee40                cudaUserObjectRelease
                0x000000000006f010                cudaGraphRetainUserObject
                0x000000000006f220                cudaGraphReleaseUserObject
                0x000000000006f410                cudaGraphAddNode
                0x000000000006f650                cudaGraphAddNode_v2
                0x000000000006f8c0                cudaGraphNodeSetParams
                0x000000000006fa90                cudaGraphExecNodeSetParams
                0x000000000006fc80                cudaGraphConditionalHandleCreate
                0x000000000006fe90                cudaGetDriverEntryPoint_ptsz
                0x00000000000700a0                cudaGetFuncBySymbol
                0x0000000000070270                cudaGetKernel
                0x0000000000070440                cudaMemcpy
                0x0000000000070650                cudaMemcpyToSymbol
                0x0000000000070890                cudaMemcpyFromSymbol
                0x0000000000070ad0                cudaMemcpy2D
                0x0000000000070d50                cudaMemcpyToArray
                0x0000000000070fb0                cudaMemcpy2DToArray
                0x0000000000071240                cudaMemcpyFromArray
                0x00000000000714a0                cudaMemcpy2DFromArray
                0x0000000000071730                cudaMemcpyArrayToArray
                0x00000000000719c0                cudaMemcpy2DArrayToArray
                0x0000000000071c60                cudaMemcpy3D
                0x0000000000071e20                cudaMemcpy3DPeer
                0x0000000000071fe0                cudaMemset
                0x00000000000721d0                cudaMemset2D
                0x0000000000072410                cudaMemset3D
                0x0000000000072660                cudaMemcpyAsync
                0x0000000000072880                cudaMemcpyToSymbolAsync
                0x0000000000072ac0                cudaMemcpyFromSymbolAsync
                0x0000000000072d00                cudaMemcpy2DAsync
                0x0000000000072f80                cudaMemcpyToArrayAsync
                0x00000000000731f0                cudaMemcpy2DToArrayAsync
                0x0000000000073490                cudaMemcpyFromArrayAsync
                0x0000000000073700                cudaMemcpy2DFromArrayAsync
                0x00000000000739a0                cudaMemcpy3DAsync
                0x0000000000073b70                cudaMemcpy3DPeerAsync
                0x0000000000073d40                cudaMemsetAsync
                0x0000000000073f40                cudaMemset2DAsync
                0x0000000000074180                cudaMemset3DAsync
                0x00000000000743d0                cudaStreamQuery
                0x0000000000074590                cudaStreamGetFlags
                0x0000000000074760                cudaStreamGetId
                0x0000000000074930                cudaStreamGetPriority
                0x0000000000074b00                cudaEventRecord
                0x0000000000074cd0                cudaEventRecordWithFlags
                0x0000000000074ea0                cudaStreamWaitEvent
                0x0000000000075070                cudaStreamAddCallback
                0x0000000000075270                cudaStreamAttachMemAsync
                0x0000000000075470                cudaStreamSynchronize
                0x0000000000075630                cudaLaunchKernel
                0x0000000000075900                cudaLaunchKernelExC
                0x0000000000075b20                cudaLaunchCooperativeKernel
                0x0000000000075df0                cudaLaunchHostFunc
                0x0000000000075fc0                cudaMemPrefetchAsync
                0x00000000000761c0                cudaMemPrefetchAsync_v2
                0x00000000000763e0                cudaSignalExternalSemaphoresAsync
                0x00000000000765e0                cudaSignalExternalSemaphoresAsync_ptsz
                0x00000000000767e0                cudaSignalExternalSemaphoresAsync_v2
                0x00000000000769e0                cudaWaitExternalSemaphoresAsync
                0x0000000000076be0                cudaWaitExternalSemaphoresAsync_ptsz
                0x0000000000076de0                cudaWaitExternalSemaphoresAsync_v2
                0x0000000000076fe0                cudaGraphInstantiateWithParams
                0x00000000000771d0                cudaGraphUpload
                0x00000000000773a0                cudaGraphLaunch
                0x0000000000077570                cudaStreamBeginCapture
                0x0000000000077740                cudaStreamBeginCaptureToGraph
                0x0000000000077990                cudaStreamEndCapture
                0x0000000000077b60                cudaStreamIsCapturing
                0x0000000000077d30                cudaStreamGetCaptureInfo
                0x0000000000077f00                cudaStreamGetCaptureInfo_ptsz
                0x00000000000780d0                cudaStreamGetCaptureInfo_v2
                0x0000000000078340                cudaStreamGetCaptureInfo_v3
                0x00000000000785b0                cudaStreamUpdateCaptureDependencies
                0x00000000000787b0                cudaStreamUpdateCaptureDependencies_v2
                0x00000000000789d0                cudaStreamCopyAttributes
                0x0000000000078ba0                cudaStreamGetAttribute
                0x0000000000078d70                cudaStreamSetAttribute
                0x0000000000078f40                cudaMallocAsync
                0x0000000000079130                cudaFreeAsync
                0x0000000000079300                cudaMallocFromPoolAsync
                0x0000000000079500                cudaGetDriverEntryPoint
                0x0000000000079710                cudaGetDeviceProperties
                0x00000000000798e0                cudaProfilerStart
                0x0000000000079a50                cudaProfilerStop
                0x0000000000079bc0                cudaGLGetDevices
                0x0000000000079dd0                cudaGraphicsGLRegisterImage
                0x0000000000079fe0                cudaGraphicsGLRegisterBuffer
                0x000000000007a1d0                cudaGLSetGLDevice
                0x000000000007a390                cudaGLRegisterBufferObject
                0x000000000007a550                cudaGLMapBufferObject
                0x000000000007a720                cudaGLUnmapBufferObject
                0x000000000007a8e0                cudaGLUnregisterBufferObject
                0x000000000007aaa0                cudaGLSetBufferObjectMapFlags
                0x000000000007ac70                cudaGLMapBufferObjectAsync
                0x000000000007ae40                cudaGLUnmapBufferObjectAsync
                0x000000000007b010                cudaGraphicsEGLRegisterImage
                0x000000000007b200                cudaEGLStreamConsumerConnect
                0x000000000007b3d0                cudaEGLStreamConsumerConnectWithFlags
                0x000000000007b5c0                cudaEGLStreamConsumerDisconnect
                0x000000000007b780                cudaEGLStreamConsumerAcquireFrame
                0x000000000007b990                cudaEGLStreamConsumerReleaseFrame
                0x000000000007bb80                cudaEGLStreamProducerConnect
                0x000000000007bd90                cudaEGLStreamProducerDisconnect
                0x000000000007bf50                cudaEGLStreamProducerPresentFrame
                0x000000000007c1a0                cudaEGLStreamProducerReturnFrame
                0x000000000007c390                cudaGraphicsResourceGetMappedEglFrame
                0x000000000007c5a0                cudaEventCreateFromEGLSync
                0x000000000007c790                cudaVDPAUGetDevice
                0x000000000007c980                cudaVDPAUSetVDPAUDevice
                0x000000000007cb70                cudaGraphicsVDPAURegisterVideoSurface
                0x000000000007cd60                cudaGraphicsVDPAURegisterOutputSurface
                0x000000000007cf50                libcudart_static_13ff43db8a0a0910080971f4109a1ef5a07f43b2
                0x000000000007cf60                libcudart_static_f819957d10e6023af1d90b177e9706eb1ae2ea98
                0x000000000007d9e0                libcudart_static_7ababbdaa2508e8e5c7be4a98c454c79c3d68789
                0x000000000007d9f0                libcudart_static_15a40446b7eb6fcdde7468ea69dff57d964578c5
                0x000000000007da00                libcudart_static_f71fdb157d02f045d295959a199529b620a40d7f
                0x000000000007da10                libcudart_static_2f22ef21ad445c61bbc48a03379a6647ded90b9f
                0x000000000007da20                libcudart_static_bb3319d65688640da8cf01a29a92ef2e7f64b7e9
                0x000000000007da30                libcudart_static_47c2458f3c7581bdd25dc0d6bd869030cd1a6325
                0x000000000007e250                libcudart_static_5ce7f3b4d70cf6d30ca0ec968491aaf8780ee13e
                0x000000000007e270                libcudart_static_2b62e28c385b557ae9a26d7e7631667bdf8e9e3c
                0x000000000007e2d0                libcudart_static_396cd5bfeb39a0fed8819e88e9e26440f4d48cb7
                0x000000000007e310                libcudart_static_ac5bfd462381f894bd9fdebcf74ccf192c9d81d8
                0x000000000007e330                libcudart_static_08311ee588445c441b840c118c4cdee7fb05d173
                0x000000000007e440                libcudart_static_87a35bef52d79e1a7e64843dc74c8f4b0d54ab97
                0x000000000007e460                libcudart_static_5dd678cabc17b0c3015f36c98e6b60b0c232249f
                0x000000000007e480                libcudart_static_b64d8eda0a508f8cfbd50ddb659de95daa710a2c
                0x000000000007e4a0                libcudart_static_5051afeacaa81062332cd28436e9055c8aa6caab
                0x000000000007e4c0                libcudart_static_e42381fdf1ccdf9f6a8c2817fda80ff4c546e012
                0x000000000007e4d0                libcudart_static_5a76c345cffbecb74c6a27158a2c4b94ea458d45
                0x000000000007e4e0                libcudart_static_2aa44198d965a148f896b3ed17521ecfd080e3c4
                0x000000000007e4f0                libcudart_static_df7398d99046e4fd52712585b72e1579db0861a3
                0x000000000007e500                libcudart_static_f2e0a871aa926b63878bbf7402699e33bd8fd05b
                0x000000000007e510                libcudart_static_15129c1d9edd53eebf25c962029d70041e755ec3
                0x000000000007e520                libcudart_static_042262a1997dca938c96e273cc00f65c863198f4
                0x000000000007e530                libcudart_static_91f7e747dd893840826909a4da0406a662ffa8b4
                0x000000000007e540                libcudart_static_eb3b336738387b65847b18df61921d6f91c2a21c
                0x000000000007e560                libcudart_static_f21627d6fb29f34704f6c813d26d1de8b1786635
                0x000000000007e5e0                libcudart_static_0f0c72ff8e6cf32513a47f8fbd6958bf76a7c412
                0x000000000007e670                libcudart_static_b961548ffbbf9df6b82fbc72d4c1e6517cc9c86b
                0x000000000007e6f0                libcudart_static_97e3ad0f7a87462041005562648b529f7d659c8a
                0x000000000007e780                libcudart_static_fe198d124c28e266510d0ffbad66d32556c24d53
                0x000000000007e950                libcudart_static_edb21d94a23882c3fbe7e5322798b059330a1e57
                0x000000000007e9e0                libcudart_static_1b40654bff95f9dfaea0985aeeb1b4946a7715d1
                0x000000000007ea00                libcudart_static_3aec857097f2032677a16fbba6f3088c10eb2c2f
                0x000000000007ea20                libcudart_static_2afb50a7e280fac7a6e07e29a1e19abeb7a7e595
                0x000000000007eab0                libcudart_static_9e92d82f330ba80cba3b5e64bb2acfdae7fef705
                0x000000000007eb60                libcudart_static_ce06456f39db42a8ff64b5f9414b05d32922ea4a
                0x000000000007ec40                libcudart_static_ff40f85fcd777808b3f8c0e6ce8b1e7c9772757b
                0x000000000007ed80                libcudart_static_7abc2116b0d7b181a0915420822943896b179902
                0x000000000007f690                libcudart_static_6400de3eb6c44f4a58eabdb5cf30221ae11ee841
                0x000000000007f770                libcudart_static_d3324a6152ff60280b2a45875a863be027f069f0
                0x000000000007f7d0                libcudart_static_808a00173d2c5bb80af072f94abd41cb60ab7fb8
                0x000000000007f7e0                libcudart_static_4b96b2bf671b25462526e34ef64bb773e61d0a35
                0x000000000007f8a0                libcudart_static_d2c9f650a7bb9422aca9913fbe82580a2934b9b3
                0x000000000007f8b0                libcudart_static_ad8724d77605c6564462e66d29cf4d752d93c2de
                0x000000000007f900                libcudart_static_db45396c044af26c65969a5cee132559514ca574
                0x000000000007f920                libcudart_static_268e17091a9fb35cedba441958117a7d2a68e57f
                0x000000000007f940                libcudart_static_913a800f00bc77df3d97571e38943970dbd32945
                0x000000000007fa70                libcudart_static_b9c6c1c99152d311e6b767b8e3acf79e8783af72
                0x000000000007fa90                libcudart_static_87a1b8fdd095a97f002c9e0beee267855c6bd537
                0x000000000007fb10                libcudart_static_09ab33f920f059c16b90dec5e8cec89059f3c11b
                0x000000000007fc40                libcudart_static_ba93eb5a28ab54302a90603ff7ea450bfd87d3fc
                0x000000000007fc60                libcudart_static_742d6647c68d80148802261521c4cd6794d17b07
                0x000000000007fc80                libcudart_static_5cf02114cfeeedd273164696ffb559a23a991273
                0x000000000007fd60                libcudart_static_3b9652a7ca664debcc0a72aad0714bd11a3617ef
                0x00000000000800d0                libcudart_static_f4d0fa7aab4792ff092321c121494487a31c4c0d
                0x0000000000080380                libcudart_static_713ed9824a796de893ddfda76eae7118e9ef5625
                0x00000000000805a0                libcudart_static_721d99e3779a1918901770751d69a7120823e7d2
                0x00000000000806b0                libcudart_static_de4bb377106f80b437a5320efee875abbe7b9ba3
                0x0000000000080820                libcudart_static_0d33e4a12dba57ff94a08788fef5ed90cf45c076
                0x0000000000080860                libcudart_static_b0f16f7966e0de19544e9caf2bcf3b4012e10bb7
                0x00000000000808c0                libcudart_static_1a026e19dbd1644e72ad7a50a988017dfdb16678
                0x0000000000080a50                libcudart_static_bb2e9cc6bbbf7d94d7c5d2c8df95441bae6a3313
                0x0000000000080c00                libcudart_static_62709422817ee4b226c75bba1e2141cda51e66bb
                0x0000000000080cf0                libcudart_static_c47e014a9c85dcc93cf816d5c77a50f506e2aaff
                0x0000000000080d10                libcudart_static_63426dd13ef20cf23198531c43c973d8bd1ef86f
                0x0000000000080d30                libcudart_static_ab8a81150f8fadd295281693416e22b99f3ce58b
                0x0000000000080d50                libcudart_static_d1165264e8e4127c7aec956d93581d84d0b1277b
                0x0000000000080db0                libcudart_static_2ac405b29485d919884338731fe191ee86d607d7
                0x0000000000080df0                libcudart_static_297596b461538406359899356f6904f901941b67
                0x0000000000080e30                libcudart_static_c4c338ec0fbb7eedd896615d2f4c297e43b53372
                0x0000000000080e50                libcudart_static_33f17ec50b0c89bb1d171b2012799ead926ef91e
                0x0000000000080f10                libcudart_static_ccbbd8eb7a25b332b0b02f667911e04809cd8101
                0x0000000000081100                libcudart_static_46341eabde9b0b667e7359b138d35044a5d185f4
                0x0000000000081200                libcudart_static_3ff730b7f1f726c4d2149f222aa0d4a2642e992e
                0x0000000000081250                libcudart_static_848371403763ae8189b8779c89f11ed427b9334d
                0x00000000000812b0                libcudart_static_1c05a27ed0003c7d227a1f9d461cb09a9dae195e
                0x00000000000812d0                libcudart_static_4b0e12b7c12d3259054590c7e97f9ffa39c8f7c7
                0x0000000000081310                libcudart_static_b01d6607775f5c6901786a5cd3b052928df84414
                0x0000000000081320                libcudart_static_2905a9e3fa6e1c087c4c455599497831f0463e2a
                0x0000000000081370                libcudart_static_8bded014624087f00dcca5ecce09ea7658fce75d
                0x0000000000081540                libcudart_static_16697ee731796e3a4e5b8f9a1aad67b01b890660
                0x0000000000081570                libcudart_static_6df4b3fabe566a15c3076a37d57d73fb7974b11d
                0x00000000000815b0                libcudart_static_046e56fe6ac68b6cce62e38d6f87159a9df8297c
                0x00000000000815f0                libcudart_static_53742445d1ec4210c2618bbfb981b43e0dd324cf
                0x0000000000081640                libcudart_static_447f0431d6e98a6cd6fb2cb5dcccdaa2b7485d33
                0x00000000000816c0                libcudart_static_0d66dd0b146edf469efc765642505daaba533fcb
                0x0000000000081740                libcudart_static_1f566d6412e635056a50a2c8dda682f7a1ff73f2
                0x00000000000817c0                libcudart_static_b5943d75a16c3c644761df1d9400d4f46d86375f
                0x0000000000081830                libcudart_static_9068284ac9e284ca7803061182f13214c6829713
                0x00000000000819a0                libcudart_static_abc254bd2330211117d3a23b2d78891a996cf2af
                0x0000000000081a00                libcudart_static_b84b96e2b0fbfd54882f60c508a882d2805fccfb
                0x0000000000081a70                libcudart_static_e75eb4f28c6262bd3fa55f141f45a86e58143449
                0x0000000000081b80                libcudart_static_9043090a314ca797917d96ea981c6188e781c69d
                0x0000000000081ba0                libcudart_static_f93e7a777a870bc0cdb71de621e3588087a0b6ac
                0x0000000000081dc0                libcudart_static_0e26f8b6ad65a6ac108673730de43f628fb25dde
                0x0000000000081f60                libcudart_static_5c0fad71aca78682d184d5aa16f443bac9d9cafa
                0x00000000000821f0                libcudart_static_9519cc95b1944bdb797ebd37ac75242b028a5ee8
                0x00000000000824a0                libcudart_static_131de3d22801e6f51aef26f7f5b515a2888ba816
                0x00000000000825a0                libcudart_static_2c9a99dfd18ad06c21cf5419ef1183d5925956d6
                0x0000000000082630                libcudart_static_a84db5088c602ffad497c83ecfd6042c865b8062
                0x0000000000082640                libcudart_static_1c88ad36a9b090b41e08083d38172b7bddbaed17
                0x0000000000082690                libcudart_static_bb7f9e4abd864caff5de31f45353e66cdc3450ee
                0x0000000000082aa0                libcudart_static_671642943fd4ba8d6e1a7b3e3ed26876cb92ebc4
                0x0000000000082ab0                libcudart_static_af54cf62de158d33e5a4221eb41e762584712348
                0x0000000000082ac0                libcudart_static_12ed2f45ca281834580304dda1735c722efad2d4
                0x0000000000082ad0                libcudart_static_b4c4d90d629110d3e3c2c420ca73d59ab8ef2ed7
                0x0000000000082ae0                libcudart_static_ae207203557d457236f5ce2d11bbb692327a5a01
                0x0000000000082af0                libcudart_static_95c40d499b1fcbed38ca8e521a4de0f4fb3e490e
                0x0000000000082b00                libcudart_static_c3b8305f14ca7875c7aae710db89b7d2fd5cac7d
                0x0000000000082ca0                libcudart_static_328bf798b9652024c7318243adf7ced54364007d
                0x0000000000082de0                libcudart_static_b313a46d0b8c4ebce055d4ee93638575fe32e1c4
                0x0000000000082e40                libcudart_static_72c28ce3a5d44f64bd4c646cbf6338878f89bb68
                0x0000000000082e90                libcudart_static_3a03c37d02fdfd448fad83d4f365a9391b069b29
                0x0000000000082ec0                libcudart_static_16d707e2c0ce9482935d4f195852f911e72f7326
                0x0000000000082ee0                libcudart_static_519d1dab428ba76f1a49ead1c2cdf93806473365
                0x0000000000082f00                libcudart_static_6ec85c3834d98ca85c14988f5676b697a8a7030c
                0x0000000000082f20                libcudart_static_f9b992bc56460de69fc5f345bce0740b518d9f32
                0x0000000000082f30                libcudart_static_0290fc979f9794d15c63d81b6959d5b647ed242e
                0x0000000000083030                libcudart_static_5a3744019867f6295b8cc8dcee0dd0bf00f19db4
                0x0000000000083060                libcudart_static_073ba6bdb7cf9a386489877d942081d46736b16a
                0x0000000000083070                libcudart_static_f2acbe3727f379324e63678af759ba418e9ef5d1
                0x0000000000083080                libcudart_static_631cfbee694ce953617012f4ca9e345284b27cb7
                0x00000000000830a0                libcudart_static_6db2726983d6d28d7b4f4e13496ddb03e88dc366
                0x0000000000083130                libcudart_static_8fcc680ace6467c7d64ee6e402677309bd4519f9
                0x0000000000083190                libcudart_static_fa94007afcb2939b45a4b3e1ebf2a9829fa86ffc
                0x00000000000831f0                libcudart_static_6f6cfc2866ede1e91764a624e01088296bd616b4
                0x0000000000083250                libcudart_static_5a41dbc08d17220207068870cb243fc08b37f34c
                0x0000000000083260                libcudart_static_5230f8b4381f22c4f74ac5d3822831bf39ca4fef
                0x0000000000083270                libcudart_static_973074e2abf1ce8bba7ea3fb36ecf81ef44137a5
                0x0000000000083290                libcudart_static_f5c018882ac6ed09c4e0904bf13d934c5424e97a
                0x00000000000832a0                libcudart_static_2a43ede7465ffbc421b982f343c706d111af9b6d
                0x0000000000083320                libcudart_static_6486295ba9dd69847682afa387e6544bcd8e5a3a
                0x00000000000833a0                libcudart_static_996e949072fba62bc1e571d008a1b20d4c072306
                0x00000000000833e0                libcudart_static_e9c929ed5130c264fbd3da54ea47ff4af62dd65a
                0x0000000000083420                libcudart_static_07bb5cc54224175e276d5f6a085652d50e208142
                0x0000000000083450                libcudart_static_70db28df4789d4e6a9a5a306c1110009740b922b
                0x0000000000083480                libcudart_static_7b9f40cb407ef2e9bc9971ffbb39537d1e95919e
                0x0000000000083490                libcudart_static_d9c8fc45e7015c9e34cc6263572b229843067c7b
                0x00000000000834a0                libcudart_static_be6288adfed18c30730b006fef5247802f67529f
                0x00000000000834b0                libcudart_static_4130d947db220750b8a1e49271e7365abefb4b9c
                0x00000000000834d0                libcudart_static_5887a27cefafb4cd438bdc166b0a6f874b079d4b
                0x00000000000834f0                libcudart_static_76f00e09bcad345ddbc3a02f0b136c83194f82d7
                0x0000000000083550                libcudart_static_f11e4eefda85b70893ca1752314bd99f905a295b
                0x00000000000835a0                libcudart_static_ef43fb0925080cbc5dffb20f4d37ce3017c439ac
                0x0000000000083600                libcudart_static_182cb7966bce1f49d8fd533dfe70e3d1f749df8a
                0x00000000000836f0                libcudart_static_edae2d0b0c2a7621c9eddb22a9fdc8c00856a8cb
                0x0000000000083710                libcudart_static_dff6b6c275383af0341ac111197f13c26885b027
                0x0000000000083730                libcudart_static_d038af8c5698941a41b51f084a5c3605589368f0
                0x0000000000083750                libcudart_static_8246669fdb5f48f0e8efead55c33d03783877d37
                0x0000000000083760                libcudart_static_b22e0007b5622de5d6fd8ee0715eb1cce65b17b3
                0x00000000000837a0                libcudart_static_b4e102a47f0be377030caad32ccc26e4232a4fe6
                0x00000000000837b0                libcudart_static_219ed6fca8da66cde68db18bd3eb81b7d1d1f760
                0x00000000000837c0                libcudart_static_e52bfd6cadaafca1d2088873ad6a92d3838d15db
                0x0000000000083810                libcudart_static_e2fcc77b90d5049bb088d86c4744c9bf4a245c49
                0x0000000000083830                libcudart_static_c593fdb5f4126075b0f5784e96e739e91fea9574
                0x0000000000083870                libcudart_static_b1300c3645253764ae4a9c73157cad0254817456
                0x0000000000083930                libcudart_static_3410c4d028df2bfad1dcae7e96a92f2666a940f2
                0x0000000000083a00                libcudart_static_1339b833de4ef8b2e76492ee530945f72b7bb221
                0x0000000000083a70                libcudart_static_a8c391358a7e111cfef43ed16301bf3f0fdb8b02
                0x0000000000083ab0                libcudart_static_88e105cf756b5b6ae0e64e95438895c3256c7905
                0x0000000000083ad0                libcudart_static_4792545878267f360b3dd6dd6343e44a5256d63b
                0x0000000000083af0                libcudart_static_5cf0632a56ad2f924b64dac79cd9141a2f2c4609
                0x0000000000083b00                libcudart_static_0394117725414948986e0934b8efeacf8dfe3169
                0x0000000000083b10                libcudart_static_a838843243992be8cf8d7a84bd8db5b5ab2cf30b
                0x0000000000083b40                libcudart_static_04ba0903ee3b66f8b32cba87ebc918d502cda47c
                0x0000000000083b60                libcudart_static_3ed9f81e000578dcd4d1a570da53c639bb66fe98
                0x0000000000083b80                libcudart_static_216c9ddcef762bc2b032329505b0959103f021f2
                0x0000000000083bb0                libcudart_static_49aea7902eb9ab0886ad798aa456e11b1e621559
                0x0000000000083bd0                libcudart_static_8fb6baede0af3fd942ca2c19eb68b390df66abae
                0x0000000000083c00                libcudart_static_6dce793be6275495c6919846edc55f97ef112804
                0x0000000000083d20                libcudart_static_1cdb062767c3df309f172b720f164812a0e5c842
                0x0000000000083e40                libcudart_static_6652ca34e01edb88ec1517d24da6e80e1290439a
                0x0000000000083f60                libcudart_static_1a50c6116541444a883707406dc14283990d884b
                0x0000000000084130                libcudart_static_dcc9debe6ddb18d19794c8e1748b539bcecadeb4
                0x0000000000084180                libcudart_static_0fb5d1e3229727324c52257c2ff85ebf44cf9894
                0x00000000000841d0                libcudart_static_a63ddfebf96d6f2e108886dba310df74beed9b88
                0x00000000000841f0                libcudart_static_8a4d9870ac53a1a957bacf25f12ecaec63c797f2
                0x0000000000084230                libcudart_static_d4e3c4eef7c1e4d745ea5184870478b8e5076077
                0x0000000000084250                libcudart_static_1cf5ed91670e84a528c0229ab509dfa9690f08f8
                0x0000000000084270                libcudart_static_c0b377addac9eb132d8ee73f985fa646829d55aa
                0x0000000000084290                libcudart_static_3de6ef1e38d52f1410ba0f0cb28744104da58819
                0x0000000000084400                libcudart_static_72913a3e62506d7208fcfc3051fe2fb40fb38734
                0x00000000000844c0                libcudart_static_46afa9fab796fdf7aaa389967f4586f9f44fcad8
                0x0000000000084670                libcudart_static_43bed12fd9e727d0f96899b23798340716cae136
                0x00000000000847e0                libcudart_static_1043aa994182a3ff1ee979219a76ceafe2915769
                0x0000000000084870                libcudart_static_7e65a0ef27678e8ab16768190f5c2212d28e0606
                0x00000000000848c0                libcudart_static_79658f73d5f1e265d0e4a68baf58b6fd4cb9b5c1
                0x00000000000848e0                libcudart_static_cfed876b5e95d0a9c8ae666a027fb87e3e2ad216
                0x0000000000084a60                libcudart_static_c70346502d05a332ae0d012e31bd95b35b73e68a
                0x0000000000084d00                libcudart_static_2d58cb5bc541961913865b380f09606e11f2a9d7
                0x0000000000085230                libcudart_static_250fdc86dbb1345dbe8eafe67e03b484b65c85e5
                0x00000000000853a0                libcudart_static_a0f7f806d42c9af1d3c9e3f9e7e9fa64e2db1ae0
                0x00000000000853f0                libcudart_static_1cae1166219ebe237157511c8524a68e74b9a743
                0x0000000000085440                libcudart_static_5923fe1111b768d2dcaa06520163a7ac645d51c0
                0x0000000000085470                libcudart_static_9d1e552533f5ceb9cd9a9a6c2049bc76619b717e
                0x00000000000854a0                libcudart_static_ef7992dc6b4ade44f1512ec5d02f56af3da2b5ae
                0x0000000000085530                libcudart_static_a0c09e6d17c31881586ad0f06b53fe56d7bdc589
                0x00000000000855f0                libcudart_static_c659126314b60d09625698814a1f720a54a82e87
                0x0000000000085600                libcudart_static_7e9ef9f56bf32bb30a3153b869956e3bfac412c9
                0x0000000000085610                libcudart_static_5d3df90ca505940f0583e477f8cf5f13d9e7d154
                0x0000000000085620                libcudart_static_62dd1836de30feaf7b6628cd353cb3f676a84494
                0x0000000000085630                libcudart_static_30bf59c5f25dad6ccecc76602b67cbc70348fd24
                0x0000000000085640                libcudart_static_4a8d5c8fd5260c7155bb0ace0f9a91e77a2f485a
                0x0000000000085650                libcudart_static_6cf618d842f4787b4af53ac6446f05c7da7d9170
                0x0000000000085660                libcudart_static_466f7cd464d43a0419a57683aa4203f2d073094f
                0x00000000000856a0                libcudart_static_8d3f31a6a38767fa8db59d6dc336ab8e7afbbde3
                0x0000000000085710                libcudart_static_3c1675c8bc73d6fb54949f3ad7c359ac91d3a3e0
                0x0000000000085720                libcudart_static_ec6d5e9bd81c0a7e6edf4d24830bf4a8f2cb8436
                0x0000000000085750                libcudart_static_ca8140f74718a50faca74bf5b41baa1e1b8e36b6
                0x00000000000857a0                libcudart_static_72007a588b6f2a4e4c22afb1fc5802612b4150dd
                0x00000000000857f0                libcudart_static_f4d8bd04af0df00cc9a512dda40f761317763f96
                0x0000000000085860                libcudart_static_1618ec37c314516f8c1c6d5231c525d2c53889d0
                0x0000000000085890                libcudart_static_6f696545c4e059e1ae547801b27c17017cad69ae
                0x00000000000858a0                libcudart_static_8453473d063e3742b80c074716918c3c36b5a647
                0x00000000000859f0                libcudart_static_1ccee6d6f47b7878687ddee37210e05911890146
                0x0000000000085a00                libcudart_static_405c1eab05f71e7a3fb74c92efa4ed84fb07af5e
                0x0000000000085b30                libcudart_static_b76d7cc51425ac637b601ad93de90ff15b3e47c1
                0x0000000000085b90                libcudart_static_f51e44db232140b3a9b1da77f300428ce8f77ece
 *fill*         0x0000000000085c7a        0x6 
 .text.libcudart_static_0bd23cee34655c24444d041b5d484bdf0981aa6b
                0x0000000000085c80       0x27 /usr/local/cuda/bin/../targets/x86_64-linux/lib/libcudart_static.a(cudart_static.o)
                0x0000000000085c80                libcudart_static_0bd23cee34655c24444d041b5d484bdf0981aa6b
 *fill*         0x0000000000085ca7        0x9 
 .text.libcudart_static_3f56f231a2e9957d049d0b66bdaa3b5d8846b80c
                0x0000000000085cb0       0x57 /usr/local/cuda/bin/../targets/x86_64-linux/lib/libcudart_static.a(cudart_static.o)
                0x0000000000085cb0                libcudart_static_5d451e3bf1c0a6f1123d0a3afb76ccb82055311f
                0x0000000000085cb0                libcudart_static_3f56f231a2e9957d049d0b66bdaa3b5d8846b80c
 *fill*         0x0000000000085d07        0x9 
 .text.libcudart_static_6676df0eeab84d0efac5763112c5dde1c288fe0c
                0x0000000000085d10      0x1f2 /usr/local/cuda/bin/../targets/x86_64-linux/lib/libcudart_static.a(cudart_static.o)
                0x0000000000085d10                libcudart_static_6676df0eeab84d0efac5763112c5dde1c288fe0c
 *fill*         0x0000000000085f02        0xe 
 .text.libcudart_static_64e3256279231ce4d06571cff928afd91ea8f9ac
                0x0000000000085f10       0x12 /usr/local/cuda/bin/../targets/x86_64-linux/lib/libcudart_static.a(cudart_static.o)
                0x0000000000085f10                libcudart_static_ea42fe02896d34774e10b6f1e676412d6faa6ed7
                0x0000000000085f10                libcudart_static_64e3256279231ce4d06571cff928afd91ea8f9ac
 *fill*         0x0000000000085f22        0xe 
 .text.libcudart_static_86d700674983f81b529ff53e8e05e2f97e0f0420
                0x0000000000085f30       0x12 /usr/local/cuda/bin/../targets/x86_64-linux/lib/libcudart_static.a(cudart_static.o)
                0x0000000000085f30                libcudart_static_86d700674983f81b529ff53e8e05e2f97e0f0420
                0x0000000000085f30                libcudart_static_a8cac26162b2507beacddb53af85b84edafadd9a
 *fill*         0x0000000000085f42        0xe 
 .text.libcudart_static_31caae15114a77d63e6ffa21889128fa4d3161f0
                0x0000000000085f50       0x12 /usr/local/cuda/bin/../targets/x86_64-linux/lib/libcudart_static.a(cudart_static.o)
                0x0000000000085f50                libcudart_static_31caae15114a77d63e6ffa21889128fa4d3161f0
                0x0000000000085f50                libcudart_static_645a919f70d5dc97d7039f1f5187a97b118ca2f6
 *fill*         0x0000000000085f62        0xe 
 .text.libcudart_static_9eb24d3a08b444f63860e6882cfba278498f07e4
                0x0000000000085f70       0x12 /usr/local/cuda/bin/../targets/x86_64-linux/lib/libcudart_static.a(cudart_static.o)
                0x0000000000085f70                libcudart_static_83c47f522359824fa467a1d9ffd30445685e2e3b
                0x0000000000085f70                libcudart_static_9eb24d3a08b444f63860e6882cfba278498f07e4
 *fill*         0x0000000000085f82        0xe 
 .text.libcudart_static_390d035db164baf76bfffa294b295d5011c9b372
                0x0000000000085f90       0x12 /usr/local/cuda/bin/../targets/x86_64-linux/lib/libcudart_static.a(cudart_static.o)
                0x0000000000085f90                libcudart_static_8a9184529a2664571c6102ed77a9c4fce9fc608b
                0x0000000000085f90                libcudart_static_390d035db164baf76bfffa294b295d5011c9b372
 *fill*         0x0000000000085fa2        0xe 
 .text.libcudart_static_e088cf1dcc11f553073beb19511be2d8474ce1f4
                0x0000000000085fb0       0x12 /usr/local/cuda/bin/../targets/x86_64-linux/lib/libcudart_static.a(cudart_static.o)
                0x0000000000085fb0                libcudart_static_ba204bcd45e9f4164293ca48333d4b28ec0d9593
                0x0000000000085fb0                libcudart_static_e088cf1dcc11f553073beb19511be2d8474ce1f4
 *fill*         0x0000000000085fc2        0xe 
 .text.libcudart_static_401f8613d2f3194e0b845a800191981199cd97d1
                0x0000000000085fd0       0x12 /usr/local/cuda/bin/../targets/x86_64-linux/lib/libcudart_static.a(cudart_static.o)
                0x0000000000085fd0                libcudart_static_401f8613d2f3194e0b845a800191981199cd97d1
                0x0000000000085fd0                libcudart_static_c4ba83180de1682314e5730dea1d1295b0fbe529
 *fill*         0x0000000000085fe2        0xe 
 .text          0x0000000000085ff0       0x12 /usr/lib/x86_64-linux-gnu/libc_nonshared.a(atexit.oS)
                0x0000000000085ff0                atexit
 .text          0x0000000000086002        0x0 /usr/lib/gcc/x86_64-linux-gnu/11/crtendS.o
 .text          0x0000000000086002        0x0 /usr/lib/gcc/x86_64-linux-gnu/11/../../../x86_64-linux-gnu/crtn.o
 *(.gnu.warning)

.fini           0x0000000000086004        0xd
 *(SORT_NONE(.fini))
 .fini          0x0000000000086004        0x8 /usr/lib/gcc/x86_64-linux-gnu/11/../../../x86_64-linux-gnu/crti.o
                0x0000000000086004                _fini
 .fini          0x000000000008600c        0x5 /usr/lib/gcc/x86_64-linux-gnu/11/../../../x86_64-linux-gnu/crtn.o
                [!provide]                        PROVIDE (__etext = .)
                [!provide]                        PROVIDE (_etext = .)
                [!provide]                        PROVIDE (etext = .)
                0x0000000000087000                . = ALIGN (CONSTANT (MAXPAGESIZE))
                0x0000000000087000                . = SEGMENT_START ("rodata-segment", (ALIGN (CONSTANT (MAXPAGESIZE)) + (. & (CONSTANT (MAXPAGESIZE) - 0x1))))

.rodata         0x0000000000087000    0x102b0
 *(.rodata .rodata.* .gnu.linkonce.r.*)
 .rodata.cst4   0x0000000000087000        0x4 /usr/lib/gcc/x86_64-linux-gnu/11/../../../x86_64-linux-gnu/Scrt1.o
                0x0000000000087000                _IO_stdin_used
 *fill*         0x0000000000087004        0x4 
 .rodata        0x0000000000087008      0x9c0 asyncAPI.o
 *fill*         0x00000000000879c8        0x8 
 .rodata._ZTS14StopWatchLinux
                0x00000000000879d0       0x11 asyncAPI.o
                0x00000000000879d0                typeinfo name for StopWatchLinux
 *fill*         0x00000000000879e1        0xf 
 .rodata._ZTS18StopWatchInterface
                0x00000000000879f0       0x15 asyncAPI.o
                0x00000000000879f0                typeinfo name for StopWatchInterface
 *fill*         0x0000000000087a05       0x1b 
 .rodata        0x0000000000087a20     0x77c0 /usr/local/cuda/bin/../targets/x86_64-linux/lib/libcudart_static.a(cudart_static.o)
                0x000000000008b6b0                libcudart_static_19012affc0149b1d78f018a5a79c0f94354c77cd
                0x000000000008b6c0                libcudart_static_3b32c781ddfb67326d3a0d46ae70b565119972dd
 .rodata.str1.1
                0x000000000008f1e0     0x4d0c /usr/local/cuda/bin/../targets/x86_64-linux/lib/libcudart_static.a(cudart_static.o)
                                       0x4d30 (size before relaxing)
 *fill*         0x0000000000093eec        0x4 
 .rodata.cst16  0x0000000000093ef0       0x10 /usr/local/cuda/bin/../targets/x86_64-linux/lib/libcudart_static.a(cudart_static.o)
 .rodata.str1.8
                0x0000000000093f00     0x33a1 /usr/local/cuda/bin/../targets/x86_64-linux/lib/libcudart_static.a(cudart_static.o)
 *fill*         0x00000000000972a1        0x3 
 .rodata.cst4   0x00000000000972a4        0xc /usr/local/cuda/bin/../targets/x86_64-linux/lib/libcudart_static.a(cudart_static.o)
                                         0x10 (size before relaxing)

.nv_fatbin      0x00000000000972b0     0x2118
 .nv_fatbin     0x00000000000972b0      0x770 /tmp/tmpxft_0000b254_00000000-7_asyncAPI_dlink.o
 .nv_fatbin     0x0000000000097a20     0x19a8 asyncAPI.o

__nv_module_id  0x00000000000993c8        0xf
 __nv_module_id
                0x00000000000993c8        0xf asyncAPI.o

.rodata1
 *(.rodata1)

.eh_frame_hdr   0x00000000000993d8     0x34d4
 *(.eh_frame_hdr)
 .eh_frame_hdr  0x00000000000993d8     0x34d4 /usr/lib/gcc/x86_64-linux-gnu/11/../../../x86_64-linux-gnu/Scrt1.o
                0x00000000000993d8                __GNU_EH_FRAME_HDR
 *(.eh_frame_entry .eh_frame_entry.*)

.eh_frame       0x000000000009c8b0    0x10f30
 *(.eh_frame)
 .eh_frame      0x000000000009c8b0       0x30 /usr/lib/gcc/x86_64-linux-gnu/11/../../../x86_64-linux-gnu/Scrt1.o
                                         0x2c (size before relaxing)
 *fill*         0x000000000009c8e0        0x0 
 .eh_frame      0x000000000009c8e0       0x28 /usr/lib/gcc/x86_64-linux-gnu/11/../../../x86_64-linux-gnu/Scrt1.o
                                         0x40 (size before relaxing)
 .eh_frame      0x000000000009c908       0x18 /usr/lib/gcc/x86_64-linux-gnu/11/../../../x86_64-linux-gnu/Scrt1.o
                                         0x30 (size before relaxing)
 .eh_frame      0x000000000009c920       0x20 /tmp/tmpxft_0000b254_00000000-7_asyncAPI_dlink.o
                                         0x38 (size before relaxing)
 .eh_frame      0x000000000009c940      0x540 asyncAPI.o
                                        0x558 (size before relaxing)
 .eh_frame      0x000000000009ce80    0x10948 /usr/local/cuda/bin/../targets/x86_64-linux/lib/libcudart_static.a(cudart_static.o)
                                      0x11208 (size before relaxing)
 .eh_frame      0x00000000000ad7c8       0x14 /usr/lib/x86_64-linux-gnu/libc_nonshared.a(atexit.oS)
                                         0x30 (size before relaxing)
 .eh_frame      0x00000000000ad7dc        0x4 /usr/lib/gcc/x86_64-linux-gnu/11/crtendS.o
 *(.eh_frame.*)

.gcc_except_table
 *(.gcc_except_table .gcc_except_table.*)

.gnu_extab
 *(.gnu_extab*)

.exception_ranges
 *(.exception_ranges*)
                0x00000000000af000                . = DATA_SEGMENT_ALIGN (CONSTANT (MAXPAGESIZE), CONSTANT (COMMONPAGESIZE))

.eh_frame
 *(.eh_frame)
 *(.eh_frame.*)

.gnu_extab
 *(.gnu_extab)

.gcc_except_table
 *(.gcc_except_table .gcc_except_table.*)

.exception_ranges
 *(.exception_ranges*)

.tdata          0x00000000000af000        0x0
                [!provide]                        PROVIDE (__tdata_start = .)
 *(.tdata .tdata.* .gnu.linkonce.td.*)

.tbss           0x00000000000af000     0x1000
 *(.tbss .tbss.* .gnu.linkonce.tb.*)
 .tbss          0x00000000000af000     0x1000 /usr/local/cuda/bin/../targets/x86_64-linux/lib/libcudart_static.a(cudart_static.o)
 *(.tcommon)

.preinit_array  0x00000000000af000        0x0
                [!provide]                        PROVIDE (__preinit_array_start = .)
 *(.preinit_array)
                [!provide]                        PROVIDE (__preinit_array_end = .)

.init_array     0x00000000000af000       0x28
                [!provide]                        PROVIDE (__init_array_start = .)
 *(SORT_BY_INIT_PRIORITY(.init_array.*) SORT_BY_INIT_PRIORITY(.ctors.*))
 .init_array.00150
                0x00000000000af000        0x8 /usr/local/cuda/bin/../targets/x86_64-linux/lib/libcudart_static.a(cudart_static.o)
 *(.init_array EXCLUDE_FILE(*crtend?.o *crtend.o *crtbegin?.o *crtbegin.o) .ctors)
 .init_array    0x00000000000af008        0x8 /usr/lib/gcc/x86_64-linux-gnu/11/crtbeginS.o
 .init_array    0x00000000000af010       0x10 asyncAPI.o
 .init_array    0x00000000000af020        0x8 /usr/local/cuda/bin/../targets/x86_64-linux/lib/libcudart_static.a(cudart_static.o)
                [!provide]                        PROVIDE (__init_array_end = .)

.fini_array     0x00000000000af028       0x10
                [!provide]                        PROVIDE (__fini_array_start = .)
 *(SORT_BY_INIT_PRIORITY(.fini_array.*) SORT_BY_INIT_PRIORITY(.dtors.*))
 *(.fini_array EXCLUDE_FILE(*crtend?.o *crtend.o *crtbegin?.o *crtbegin.o) .dtors)
 .fini_array    0x00000000000af028        0x8 /usr/lib/gcc/x86_64-linux-gnu/11/crtbeginS.o
 .fini_array    0x00000000000af030        0x8 /usr/local/cuda/bin/../targets/x86_64-linux/lib/libcudart_static.a(cudart_static.o)
                [!provide]                        PROVIDE (__fini_array_end = .)

.ctors
 *crtbegin.o(.ctors)
 *crtbegin?.o(.ctors)
 *(EXCLUDE_FILE(*crtend?.o *crtend.o) .ctors)
 *(SORT_BY_NAME(.ctors.*))
 *(.ctors)

.dtors
 *crtbegin.o(.dtors)
 *crtbegin?.o(.dtors)
 *(EXCLUDE_FILE(*crtend?.o *crtend.o) .dtors)
 *(SORT_BY_NAME(.dtors.*))
 *(.dtors)

.jcr
 *(.jcr)

.data.rel.ro    0x00000000000af040     0x45a0
 *(.data.rel.ro.local* .gnu.linkonce.d.rel.ro.local.*)
 .data.rel.ro.local._ZTV14StopWatchLinux
                0x00000000000af040       0x48 asyncAPI.o
                0x00000000000af040                vtable for StopWatchLinux
 *fill*         0x00000000000af088       0x18 
 .data.rel.ro.local
                0x00000000000af0a0     0x4480 /usr/local/cuda/bin/../targets/x86_64-linux/lib/libcudart_static.a(cudart_static.o)
                0x00000000000af0a0                libcudart_static_112951557756466ec1bf3062350d233526562537
                0x00000000000af0c0                libcudart_static_c00f54433b44be9c98e93cacc9f109678b3637aa
                0x00000000000af0d0                libcudart_static_18da6b0eadea75084a4bf41a7bc5af84f3135969
                0x00000000000af0e0                libcudart_static_4ef39cf62c04dc327570b5a117ddbb9069536e28
 *(.data.rel.ro .data.rel.ro.* .gnu.linkonce.d.rel.ro.*)
 .data.rel.ro   0x00000000000b3520        0x0 /usr/lib/gcc/x86_64-linux-gnu/11/../../../x86_64-linux-gnu/Scrt1.o
 .data.rel.ro._ZTV18StopWatchInterface
                0x00000000000b3520       0x48 asyncAPI.o
                0x00000000000b3520                vtable for StopWatchInterface
 .data.rel.ro._ZTI14StopWatchLinux
                0x00000000000b3568       0x18 asyncAPI.o
                0x00000000000b3568                typeinfo for StopWatchLinux
 .data.rel.ro._ZTI18StopWatchInterface
                0x00000000000b3580       0x10 asyncAPI.o
                0x00000000000b3580                typeinfo for StopWatchInterface
 *fill*         0x00000000000b3590       0x10 
 .data.rel.ro   0x00000000000b35a0       0x40 /usr/local/cuda/bin/../targets/x86_64-linux/lib/libcudart_static.a(cudart_static.o)

.dynamic        0x00000000000b35e0      0x210
 *(.dynamic)
 .dynamic       0x00000000000b35e0      0x210 /usr/lib/gcc/x86_64-linux-gnu/11/../../../x86_64-linux-gnu/Scrt1.o
                0x00000000000b35e0                _DYNAMIC

.got            0x00000000000b37f0      0x550
 *(.got.plt)
 .got.plt       0x00000000000b37f0      0x520 /usr/lib/gcc/x86_64-linux-gnu/11/../../../x86_64-linux-gnu/Scrt1.o
                0x00000000000b37f0                _GLOBAL_OFFSET_TABLE_
 *(.igot.plt)
 *(.got)
 .got           0x00000000000b3d10       0x30 /usr/lib/gcc/x86_64-linux-gnu/11/../../../x86_64-linux-gnu/Scrt1.o
 *(.igot)
                0x00000000000b4000                . = DATA_SEGMENT_RELRO_END (., 0x0)

.data           0x00000000000b4000      0x198
 *(.data .data.* .gnu.linkonce.d.*)
 .data          0x00000000000b4000        0x4 /usr/lib/gcc/x86_64-linux-gnu/11/../../../x86_64-linux-gnu/Scrt1.o
                0x00000000000b4000                data_start
                0x00000000000b4000                __data_start
 .data          0x00000000000b4004        0x0 /usr/lib/gcc/x86_64-linux-gnu/11/../../../x86_64-linux-gnu/crti.o
 .data          0x00000000000b4004        0x0 /usr/lib/gcc/x86_64-linux-gnu/11/crtbeginS.o
 *fill*         0x00000000000b4004        0x4 
 .data.rel.local
                0x00000000000b4008        0x8 /usr/lib/gcc/x86_64-linux-gnu/11/crtbeginS.o
                0x00000000000b4008                __dso_handle
 .data          0x00000000000b4010        0x0 /tmp/tmpxft_0000b254_00000000-7_asyncAPI_dlink.o
 *fill*         0x00000000000b4010       0x10 
 .data          0x00000000000b4020      0x130 asyncAPI.o
 *fill*         0x00000000000b4150       0x10 
 .data          0x00000000000b4160       0x28 /usr/local/cuda/bin/../targets/x86_64-linux/lib/libcudart_static.a(cudart_static.o)
 .data.rel.local
                0x00000000000b4188       0x10 /usr/local/cuda/bin/../targets/x86_64-linux/lib/libcudart_static.a(cudart_static.o)
                0x00000000000b4188                libcudart_static_327caa13e832f97bb1c349f96f2626a45f4961f3
                0x00000000000b4190                libcudart_static_9025f89e94127d9804aac2636551ae8b4ca3aecd
 .data          0x00000000000b4198        0x0 /usr/lib/x86_64-linux-gnu/libc_nonshared.a(atexit.oS)
 .data          0x00000000000b4198        0x0 /usr/lib/gcc/x86_64-linux-gnu/11/crtendS.o
 .data          0x00000000000b4198        0x0 /usr/lib/gcc/x86_64-linux-gnu/11/../../../x86_64-linux-gnu/crtn.o

.tm_clone_table
                0x00000000000b4198        0x0
 .tm_clone_table
                0x00000000000b4198        0x0 /usr/lib/gcc/x86_64-linux-gnu/11/crtbeginS.o
 .tm_clone_table
                0x00000000000b4198        0x0 /usr/lib/gcc/x86_64-linux-gnu/11/crtendS.o

.nvFatBinSegment
                0x00000000000b4198       0x30
 .nvFatBinSegment
                0x00000000000b4198       0x18 /tmp/tmpxft_0000b254_00000000-7_asyncAPI_dlink.o
 .nvFatBinSegment
                0x00000000000b41b0       0x18 asyncAPI.o

.data1
 *(.data1)
                0x00000000000b41c8                _edata = .
                [!provide]                        PROVIDE (edata = .)
                0x00000000000b41c8                . = .
                0x00000000000b41c8                __bss_start = .

.bss            0x00000000000b41e0     0x1c10
 *(.dynbss)
 .dynbss        0x00000000000b41e0        0x8 /usr/lib/gcc/x86_64-linux-gnu/11/../../../x86_64-linux-gnu/Scrt1.o
                0x00000000000b41e0                stderr@@GLIBC_2.2.5
 *(.bss .bss.* .gnu.linkonce.b.*)
 .bss           0x00000000000b41e8        0x0 /usr/lib/gcc/x86_64-linux-gnu/11/../../../x86_64-linux-gnu/Scrt1.o
 .bss           0x00000000000b41e8        0x0 /usr/lib/gcc/x86_64-linux-gnu/11/../../../x86_64-linux-gnu/crti.o
 .bss           0x00000000000b41e8        0x1 /usr/lib/gcc/x86_64-linux-gnu/11/crtbeginS.o
 *fill*         0x00000000000b41e9        0x7 
 .bss           0x00000000000b41f0       0x10 /tmp/tmpxft_0000b254_00000000-7_asyncAPI_dlink.o
 .bss           0x00000000000b4200       0x38 asyncAPI.o
 *fill*         0x00000000000b4238        0x8 
 .bss           0x00000000000b4240     0x1bb0 /usr/local/cuda/bin/../targets/x86_64-linux/lib/libcudart_static.a(cudart_static.o)
                0x00000000000b4240                libcudart_static_0e45e1457c83e5c15811fc81dd07d8c8aa7841f7
                0x00000000000b4248                libcudart_static_e8f06d9269b95f9ff128f5efd0e7445b68c2d875
                0x00000000000b4250                libcudart_static_46daee5400619e1e5840051b978ca6fe400ffe8d
                0x00000000000b4258                libcudart_static_05f5b8af88bbce0f196c869095076bdb93dc8b73
                0x00000000000b4260                libcudart_static_225839e2d3b28308d1766ba638b686fe441f1ba7
                0x00000000000b4268                libcudart_static_2d5d8217ce429e39f86bd11ee9ff6eab148dbd9e
                0x00000000000b4270                libcudart_static_053daf75490940c9ce0c2f88ef217bb3d110cd6b
                0x00000000000b4278                libcudart_static_f3b0448bf1a9c7115680ee7430ad50b175a5111d
                0x00000000000b4280                libcudart_static_418339cb15e7cdbbfcbdf15845af01caea759635
                0x00000000000b4288                libcudart_static_8e50a4af8c5b4ac9413af897e10a99ad9500e6c7
                0x00000000000b4290                libcudart_static_c278258523c890c81923bdf976efbf9fb7148fb7
                0x00000000000b4298                libcudart_static_c6f85bb2642b6482eb54cd984efaeef4fa030966
                0x00000000000b42a0                libcudart_static_6354dd970249137d53896465ddfba6ca9f848a25
                0x00000000000b42a8                libcudart_static_c744c5464d7d07ebbe154cb331e55d56dca3fd29
                0x00000000000b42b0                libcudart_static_c2c0e37173e103ca8e90797dd56ea9d9fa4b429b
                0x00000000000b42b8                libcudart_static_93c6df0949c7f3f263f03b46e65deb92d541ccb8
                0x00000000000b42c0                libcudart_static_463d51ad2b420f5589a3a9b481e94cc8e43b29b0
                0x00000000000b42c8                libcudart_static_2405aa44d7ebf1ab075404d47a2d895274b30155
                0x00000000000b42d0                libcudart_static_a85e136ad53dd489d0ca1467615461662169ec68
                0x00000000000b42d8                libcudart_static_e18fa4ceb712f1eca59922475ae9d6665d874cb2
                0x00000000000b42e0                libcudart_static_91282e80b3ec1337b1770274d9d66ee972bc0fb1
                0x00000000000b42e8                libcudart_static_81aa38760ffbbaa15a943a4f85dd2d5336baaec2
                0x00000000000b42f0                libcudart_static_910b46bd8c335e7fd0c51d776157072058bfb1df
                0x00000000000b42f8                libcudart_static_0a971b6eb64abf3cbd7354dafde8cb40388c4f09
                0x00000000000b4300                libcudart_static_63e2b5f06bda106606a98e9a6ed4b175281a97b3
                0x00000000000b4308                libcudart_static_0e9d84213e75d47eb20b81c55ff87f1b91932b6d
                0x00000000000b4310                libcudart_static_9930e7357fe8d6f363b8b0852203e79379f7b36d
                0x00000000000b4318                libcudart_static_23e5535fceb2b606b5a00cfc8e5c5a4eb8c39569
                0x00000000000b4320                libcudart_static_2c3d141a228d8769b45964901a29ba696d9cf316
                0x00000000000b4328                libcudart_static_c87ea4eea135ae7e8e599eaf2dd2541315be11ad
                0x00000000000b4330                libcudart_static_ad6732eea3a3001b872058563f19cc61e6433f06
                0x00000000000b4338                libcudart_static_b8ecebab64e292d126f7e23aea33c09fcdccd318
                0x00000000000b4340                libcudart_static_d2ca828ef48b2159ef6f701ccec723b6f93c6015
                0x00000000000b4348                libcudart_static_a60f70ee142b5d5b296ac7a395ace67dfcd67daf
                0x00000000000b4350                libcudart_static_5e3d15b35879908e694f1c931045a1ed8ea547fe
                0x00000000000b4358                libcudart_static_8be30ce93baf0adcf8c1b0f587752f2fa2ecbaee
                0x00000000000b4360                libcudart_static_01428bb13b63c9601ac6724e26517b2536366c8e
                0x00000000000b4368                libcudart_static_1c153c346c9f07c1154cfc9010978067fc467703
                0x00000000000b4370                libcudart_static_f09c9487d6985bde84e6439e171d181d5014ce4e
                0x00000000000b4378                libcudart_static_893221fb96b74d4547811a4cd6c1f9b19439f1c7
                0x00000000000b4380                libcudart_static_22e2e13ebf932d6715825d2406de7add1405c635
                0x00000000000b4388                libcudart_static_721f7b1541139dcee99b1b79b864b9688d36be69
                0x00000000000b4390                libcudart_static_b4e41ccd41f0a48628c00fafc31fc884c38fe7c3
                0x00000000000b4398                libcudart_static_1cdb85ecd2b1e4198f0371e849b2e6308a6ae829
                0x00000000000b43a0                libcudart_static_eb575dcf958898bd58bf9dc9ab5bbd065cc49513
                0x00000000000b43a8                libcudart_static_b9ba96e05776a922c1fa2ef826c471cc5082fd60
                0x00000000000b43b0                libcudart_static_c7d5902315ce210976db755a1938a07eb6357f14
                0x00000000000b43b8                libcudart_static_a469aced45d38b357e41724e96c9d4dd17689994
                0x00000000000b43c0                libcudart_static_16f7cb11267406d9e2dffd8bec922d27d1fc9d41
                0x00000000000b43c8                libcudart_static_f016042d63e97eceba322013fe80ae4d335d6de1
                0x00000000000b43d0                libcudart_static_0990704ac79c7b56d4fea381f84d1e2bc4994e3d
                0x00000000000b43d8                libcudart_static_d7ba00b2e1841d7cd0552bfb4939b016cf26843c
                0x00000000000b43e0                libcudart_static_c8383ff9fc6ee01b4619fc2bb9293d916f08bb59
                0x00000000000b43e8                libcudart_static_7589bfd3d7432ba185533bd0820d85cb2f02385f
                0x00000000000b43f0                libcudart_static_901e105214c74371730790a169db865e1619569d
                0x00000000000b43f8                libcudart_static_e5446e8790425285fa3545f724b6a3dac796b9f6
                0x00000000000b4400                libcudart_static_6636cf85bee454213c5cc6cb7b0c10e4d66cffc5
                0x00000000000b4408                libcudart_static_4c148a8f0254a6b9e0903ebaf2a30dbb00d8ee37
                0x00000000000b4410                libcudart_static_b1fa780251bf0c64a7fdff20c7ac8312cba8d262
                0x00000000000b4418                libcudart_static_58791ff28f4e5d65f15861c01286321c3101f9f5
                0x00000000000b4420                libcudart_static_2243ca2dc0acc309b5cc7ce4f49108b03b70d168
                0x00000000000b4428                libcudart_static_cd749e773735145788b22e95e374aed420e55c93
                0x00000000000b4430                libcudart_static_2df9e0618217d985202b72a3628b55912b9002e4
                0x00000000000b4438                libcudart_static_ab46aeff510cc45245f778a4845d9fd83c0f042f
                0x00000000000b4440                libcudart_static_c65822bf2314ce11a9252254261cda09ea1399e1
                0x00000000000b4448                libcudart_static_35515bf0a12ba64a6fdec01d5d2ae8ed44e34c9e
                0x00000000000b4450                libcudart_static_99ce84f445872fc78fb3720b02281a3c8bb441a1
                0x00000000000b4458                libcudart_static_6d523018410c22857a74b6e165e3b3516491b0b7
                0x00000000000b4460                libcudart_static_9405ac6a73347bd5fc96ffe772628e1d439e988a
                0x00000000000b4468                libcudart_static_d6063d826057e2ee15fab0580ac0f25c8c9cb1b3
                0x00000000000b4470                libcudart_static_4e7a7f4bcf83ceab128f7b9ee7319fe3786d5061
                0x00000000000b4478                libcudart_static_0ece2c88eecb70e027d2ff983a377a5fc135505a
                0x00000000000b4480                libcudart_static_3c930884523b5d686a83da04e804cc366edc4786
                0x00000000000b4488                libcudart_static_09c9eeb14c7e67fdf491e077692f2ccb658b75c5
                0x00000000000b4490                libcudart_static_2401c2f713b00bea2d0f256316567cab64ff0915
                0x00000000000b4498                libcudart_static_81d8ab26a7cb80109c8cb24f538950b1b4dc3da3
                0x00000000000b44a0                libcudart_static_c764f07eddd0f086a89ca2b8e7b906fef41c05fd
                0x00000000000b44a8                libcudart_static_afc76fe83219cf9bde428aea0d9396c40fe4d723
                0x00000000000b44b0                libcudart_static_f414e899aeb24f6a4698465a4b0ddcf2f33089d9
                0x00000000000b44b8                libcudart_static_f1db1f8096d3692474a25d50382ec755dfb49d80
                0x00000000000b44c0                libcudart_static_67af978e6a94419363700bb0cdb01f46b598b129
                0x00000000000b44c8                libcudart_static_6c4bec1b10b0930d1007bf58ffd7a31cc597f92f
                0x00000000000b44d0                libcudart_static_34f15c42ca58b5330c3820ac88cd43f27b3d24ac
                0x00000000000b44d8                libcudart_static_6aa6709134d21e4e29cbbe8bfb0f66a649c8c4ae
                0x00000000000b44e0                libcudart_static_a876bb4b6b19f8c2242db66ecfb49e2d1de8ff9d
                0x00000000000b44e8                libcudart_static_bdcf6062efeb9abab81f54f8d639c0b30a83d233
                0x00000000000b44f0                libcudart_static_c76be74284ed34f2d21aaec864c1b83833798826
                0x00000000000b44f8                libcudart_static_cf99c4cee50317c24f82edf856b6dc52d484cc05
                0x00000000000b4500                libcudart_static_029685ba376835b71ed40bdb4e33adedc7f0830d
                0x00000000000b4508                libcudart_static_2103640c20d6ec88591168463ea21e3bb658e9d7
                0x00000000000b4510                libcudart_static_99c614831de6b8a59a918fcbed308e54b824f69f
                0x00000000000b4518                libcudart_static_602b879faf13bd22879ece6755c13dd8d6d4ccdd
                0x00000000000b4520                libcudart_static_c1e7a4706331e5ef74e591fae8106f82fa243151
                0x00000000000b4528                libcudart_static_203ea7f48252ced89f675a9302b60bc8a50b78e9
                0x00000000000b4530                libcudart_static_965a58f1de42f3c221cc31739e957f6bbae8341a
                0x00000000000b4538                libcudart_static_fe8dfc7656b50bc1fe7ba0f92564445333d6d4df
                0x00000000000b4540                libcudart_static_dd4d67089421e1262c1cd44f212189c18b8974ef
                0x00000000000b4548                libcudart_static_65d2af89a99f1098287fd73d65adb92dea4b6cb7
                0x00000000000b4550                libcudart_static_9d49d874ff6c47a6f090200b3bc83c073fb9822b
                0x00000000000b4558                libcudart_static_cd4278d58f226e8140092a6d745ad73f4de66c91
                0x00000000000b4560                libcudart_static_341b1f7683a54488ba7ee1c7fcfa73b94a1fc1b8
                0x00000000000b4568                libcudart_static_e1f6c216b08fb9d06a1f368d564ca39ee0b1fa5d
                0x00000000000b4570                libcudart_static_688ef4aba97aed29ba322d65b97e2bcffbeffa28
                0x00000000000b4578                libcudart_static_1e26407d6fe78f43547739501dabebe93cd95121
                0x00000000000b4580                libcudart_static_3a101f96da313abe236c4ce18467079c62a53d82
                0x00000000000b4588                libcudart_static_edb741a92233c6ed0580f8611c79521bb9f352df
                0x00000000000b4590                libcudart_static_5f6739d9fcad0b5071e60c4ef6cab7481d2d40d4
                0x00000000000b4598                libcudart_static_0b41070f41d01d4e1456b2b348697677c986a3ce
                0x00000000000b45a0                libcudart_static_79d4ce7ecba9c05b545c83ec6eae8d9d03cce3fd
                0x00000000000b45a8                libcudart_static_3d9c1897e5e032cee18878edf3706ec1d466d34a
                0x00000000000b45b0                libcudart_static_3cd03ed0c2233efe47b7ce18590f7335f4bccda2
                0x00000000000b45b8                libcudart_static_fa731e8e9c8e2d24a27bddf3ea7c176a2f5e4de7
                0x00000000000b45c0                libcudart_static_55e8d954d844a3d91abfadfe5ccc944a224fa76c
                0x00000000000b45c8                libcudart_static_80ba8d41c2496b4ee40646b7a1693c4fcb3ee19e
                0x00000000000b45d0                libcudart_static_343cb598204b32f969cd7eb5a8f60204e343288b
                0x00000000000b45d8                libcudart_static_9a1db9e252009cf704e6c14e76097434f3dbc42a
                0x00000000000b45e0                libcudart_static_df39fa98a29cfcff6cda0c6706de64f88f794043
                0x00000000000b45e8                libcudart_static_89f9e242abdd044ac6ca5ac248f1cdbe9e05ebc0
                0x00000000000b45f0                libcudart_static_37eb1c85f4f6d25137e5135f5c4df61eea3732b3
                0x00000000000b45f8                libcudart_static_0b0f90bb56049cde6872784c57a4abf5abcf4159
                0x00000000000b4600                libcudart_static_a19db7aaaf181c275ed5f1729977d6244693e0d3
                0x00000000000b4608                libcudart_static_8a9f5326d530b311a4c508577ec58545ef205e69
                0x00000000000b4610                libcudart_static_ae85db1527298b2c7f8773a244cf0761377c51af
                0x00000000000b4618                libcudart_static_a97bae823b00c78c5a501ede06b3a35c5ecbce20
                0x00000000000b4620                libcudart_static_8333040566eea482af7077756b5f5f93c1e4d74a
                0x00000000000b4628                libcudart_static_bf9df81d4b71098d8074a4881fb73efdfdb28027
                0x00000000000b4630                libcudart_static_6d40f4be797ddffb8dc89e9b6fdf1490ca866814
                0x00000000000b4638                libcudart_static_481308d4fa84c9c9c424d65a53203823a68281f0
                0x00000000000b4640                libcudart_static_7667527f20bd938c6487d8663f2f13367b17dac5
                0x00000000000b4648                libcudart_static_a189ad2695fd3efddb7d51f122afba906ea5eb51
                0x00000000000b4650                libcudart_static_298c24b2afbd795b99a65cc669ebf7ff57f0860f
                0x00000000000b4658                libcudart_static_196bc3065413e6c81e74861204b1f46778a0a6a5
                0x00000000000b4660                libcudart_static_9f354b9a803a8fac8cc0f56a491e95fddc81f25b
                0x00000000000b4668                libcudart_static_480aa9d8275b50d12a5a696839fc6ab35b83d779
                0x00000000000b4670                libcudart_static_934af6f83e7c419a9cde909ca47cb2d5354188d5
                0x00000000000b4678                libcudart_static_45535533a3abd99184d918b87259244cadada701
                0x00000000000b4680                libcudart_static_2d7b41322c7ff3685743d8cb3dbace982ae1fd41
                0x00000000000b4688                libcudart_static_8245c68833cd2eec14d426c3a6c5d4303c8a4fbc
                0x00000000000b4690                libcudart_static_3d28d942f1fa7a3dddf4416e58c8fbfcc44aa485
                0x00000000000b4698                libcudart_static_0e16aba37f87aa2e09576af8c3ef6cc020f4bbcb
                0x00000000000b46a0                libcudart_static_eec7c971032bead16d35df41b19e518e8b76e09f
                0x00000000000b46a8                libcudart_static_910ed2432e1ac90fed0194247e461a3879426a96
                0x00000000000b46b0                libcudart_static_e406c3c6f1ee25f4029622226bafc09bce0167e5
                0x00000000000b46b8                libcudart_static_b498c73f7894f0c18d73cea26bbe453eecbe47ec
                0x00000000000b46c0                libcudart_static_3b987ccf798349b772e1fdceb6a998a32e976d19
                0x00000000000b46c8                libcudart_static_dec9ec1d2942af6653fb61a2452c8562ba34ab71
                0x00000000000b46d0                libcudart_static_84a85b529a2017d760066bd2616b120dfbed3183
                0x00000000000b46d8                libcudart_static_e5c1d0e2f55eaeb74421a87dc1013318ae210354
                0x00000000000b46e0                libcudart_static_8483f8a75541e890278ba5f134352413f8d27d76
                0x00000000000b46e8                libcudart_static_8fda5a926d99ef5603f1be3d249eb98e018836d3
                0x00000000000b46f0                libcudart_static_e1a25ddaea120c47d3196cd872a81c998e9327bf
                0x00000000000b46f8                libcudart_static_e06e9341032151a6bd554148b756ceb7a9500727
                0x00000000000b4700                libcudart_static_fcd99d861848efd9c0b96632b0a18bc0ecf6e89b
                0x00000000000b4708                libcudart_static_7bb1a8acd9d20ab071620d24443f1a098e247f31
                0x00000000000b4710                libcudart_static_0ffe618d03f85ec3857012b7ee8716e266a52906
                0x00000000000b4718                libcudart_static_a167eca2aaeffad6cd08c7e94044608f4742d036
                0x00000000000b4720                libcudart_static_2a953a8f1e387b12d0ff1ff336f5ebfd9ab37ae4
                0x00000000000b4728                libcudart_static_fcb46a4044ca3911a57b53d4c243ee96c384232c
                0x00000000000b4730                libcudart_static_4b9a656c76e2d3985aab1bdbf12f880dcf428689
                0x00000000000b4738                libcudart_static_4e1bddda3d0ad2427a804b67ca641092c781471e
                0x00000000000b4740                libcudart_static_636d534ba60764aa672d3c73f5b410d08aa85399
                0x00000000000b4748                libcudart_static_e4cbab741ba5e6f87b72486dc6b2b77c80ad15ba
                0x00000000000b4750                libcudart_static_059e20a70a0d3c2bd425be5d3157120f666dfdc4
                0x00000000000b4758                libcudart_static_d8c1902fe5cfac4ce579bd4da831a2d7b3596859
                0x00000000000b4760                libcudart_static_cef4f4937099c961925dc84bdc84a2e607f34d2d
                0x00000000000b4768                libcudart_static_9b3cf43014e464f14a6f74e981c105f2fd19ae1f
                0x00000000000b4770                libcudart_static_7113df5deab4ec0f87a80aeade32bb04917c4012
                0x00000000000b4778                libcudart_static_a11bef1ea374d0913bf7ac4def2480feccea2f5f
                0x00000000000b4780                libcudart_static_82b48ca8feffa2d1500b07498471fdafb3d7068e
                0x00000000000b4788                libcudart_static_7ad3fc8aa5aafe73bdafb270ac9f98a6b3c6c2ed
                0x00000000000b4790                libcudart_static_80547ddc0052d011b5abd31a79febfca3d6fc03a
                0x00000000000b4798                libcudart_static_9dde9d624868425fa3c567d4d7507f05a4e8fed7
                0x00000000000b47a0                libcudart_static_2b24972d476070c4f9037d90f933f810d4c8a026
                0x00000000000b47a8                libcudart_static_47824e756b6d2b343dc75a6442cd5946569d1216
                0x00000000000b47b0                libcudart_static_54135858e4e86597555f5bebe0ff7d708f963e25
                0x00000000000b47b8                libcudart_static_895bc7ce5d973929c787548fb95f85904cfb35bb
                0x00000000000b47c0                libcudart_static_f17f335b3ed560dd8b8fba90b27bffa038d21fec
                0x00000000000b47c8                libcudart_static_69cfdd48d519e29caef4c6a275d9198fe4d08f53
                0x00000000000b47d0                libcudart_static_e675b7bd12322248728738c1c09f0c327a3e5e61
                0x00000000000b47d8                libcudart_static_8a571ae323682a203c3c0a44a7b657df210c5402
                0x00000000000b47e0                libcudart_static_c9ffbb2c5143d95af3f292eeff0a2bd31b64cbdd
                0x00000000000b47e8                libcudart_static_606836d390df37b876ab9c3a3ff48b894b5671b1
                0x00000000000b47f0                libcudart_static_22a0934f638e94ca2d3ba65fa3cfec5fbc9af4a8
                0x00000000000b47f8                libcudart_static_3b05b2427f86213e096deab64581b42f7be44e6e
                0x00000000000b4800                libcudart_static_84e4d23dcabd4ad128f519e93d4018f961f8bd69
                0x00000000000b4808                libcudart_static_a187f9758a8b3276507404b3f76e627647fa8fb4
                0x00000000000b4810                libcudart_static_547371913219c24934bf717623239d5cd75ba5a9
                0x00000000000b4818                libcudart_static_c34751c0f65d4757a85664eaf940c38b7f03f68c
                0x00000000000b4820                libcudart_static_9b6a902ed3cec68a4c3f78f9a8c428f829ebc9b7
                0x00000000000b4828                libcudart_static_e2eb4ef5bbed5b17fa97893b585af79bf2d44367
                0x00000000000b4830                libcudart_static_4f39173f4197349beb6ee31dfb7a507050979b9f
                0x00000000000b4838                libcudart_static_c8d8ede08d2eb83e42928d10a95bdf7fe47dec49
                0x00000000000b4840                libcudart_static_82c8f3d8ab5ae3087bf90e45885cfcc3e7109973
                0x00000000000b4848                libcudart_static_2fa9475305e7b2bfae26a9165bf2c74a93017d85
                0x00000000000b4850                libcudart_static_9081dda842ff8185a61125a79016d80453d67dd7
                0x00000000000b4858                libcudart_static_42027c8dfbfc4085af2fcfc83d6659fe543e014e
                0x00000000000b4860                libcudart_static_858864f22f1b9b7135335ba37cea88c0a1297d3c
                0x00000000000b4868                libcudart_static_02285e75530e2bd423d90c0b8625da752690ddee
                0x00000000000b4870                libcudart_static_78c29a9810929b80457bae089b45affbc166e1ea
                0x00000000000b4878                libcudart_static_62c37a05cae8788dba19661fa62b560aad640aa1
                0x00000000000b4880                libcudart_static_cffd57040758d7e7d8e066876dcaecd6e29f65d5
                0x00000000000b4888                libcudart_static_c71f493a34dc36d9dfa1d2e2cb74cd4eb0364294
                0x00000000000b4890                libcudart_static_f6dc538b4224e4efbd1d02ec158a617891b6617d
                0x00000000000b4898                libcudart_static_cac2f82f80cf5afac78347a48d69c2e2f4639ab1
                0x00000000000b48a0                libcudart_static_7fc9fab72d1ab5e1fffbd1090ff78c5ca5702e42
                0x00000000000b48a8                libcudart_static_818db217774ea88f7b15df9e4790453199d251ae
                0x00000000000b48b0                libcudart_static_c1b448afe4c7d24ca7f3fc1676e8122a3cfd3047
                0x00000000000b48b8                libcudart_static_5b06dfb730cb0dffdf10436b380b8197266e1e53
                0x00000000000b48c0                libcudart_static_653ede11393b31c2407259e85738759dd7615e63
                0x00000000000b48c8                libcudart_static_7918b09d3483ce3b13e2b70507466ef255637429
                0x00000000000b48d0                libcudart_static_4577d27647d33fb1d2512080010456e90452cdee
                0x00000000000b48d8                libcudart_static_9cb734bdfaf1b967b70f3e76c31b326f23c70407
                0x00000000000b48e0                libcudart_static_7c5b1aeb686125edd0258690729619790a71dd87
                0x00000000000b48e8                libcudart_static_2fcc46dc094c1603f287760448b96cbd0424039e
                0x00000000000b48f0                libcudart_static_8b3ebab89029b19d098d31eb25b553da8631ff07
                0x00000000000b48f8                libcudart_static_6a2987f0a023f48cf8c8d498a06d80a53d2a8475
                0x00000000000b4900                libcudart_static_25f10f8c96679f33adb90afc862d948b0b837c83
                0x00000000000b4908                libcudart_static_e4e78805eaa44f7a69c8f5c93c40f9217aa48183
                0x00000000000b4910                libcudart_static_975918afe035621c2af0269c88e385ba6204cac5
                0x00000000000b4918                libcudart_static_68a0b6e50fa01a95dcd6a4f8a2ffc494dd68efd9
                0x00000000000b4920                libcudart_static_e74379aa2bbf7ed2cd1c679a4d97e587612d5c02
                0x00000000000b4928                libcudart_static_f219f28ab1fbe41af3f802df16d3357f2b0ea4c7
                0x00000000000b4930                libcudart_static_e85c272d04bac8ee77872d817d22d2fa63db7f36
                0x00000000000b4938                libcudart_static_4ae19f5c9899aed1427fb60b9978e9a62c849639
                0x00000000000b4940                libcudart_static_36371adcd5110cfe80972b059c49ad8542393423
                0x00000000000b4948                libcudart_static_7f516cd86394c63c7706a3903160fc526cb2f8c4
                0x00000000000b4950                libcudart_static_2d7c82af02f89b72356873d22ce76408e9c70dbb
                0x00000000000b4958                libcudart_static_d6b3ee17c277eb55bf010992d3f290ab9388d07e
                0x00000000000b4960                libcudart_static_b0f372c767f62653c03adaaf165ccb517eda6efb
                0x00000000000b4968                libcudart_static_e3b549d59878cf8dcac9446f6336a60656c8529d
                0x00000000000b4970                libcudart_static_295f9b7e68727d7f3a433e0dadf5a9cd9c12772c
                0x00000000000b4978                libcudart_static_39ddca06914758868ced08f0396e6002f6487fba
                0x00000000000b4980                libcudart_static_5c2989e9675f4b06ee4ae0edf4190ae741db01d3
                0x00000000000b4988                libcudart_static_4ba376da84bda8657797681f0a03623f86f70480
                0x00000000000b4990                libcudart_static_ba144f499f77bb129af4093295a2a2e31a537bde
                0x00000000000b4998                libcudart_static_00c95bd0daa30e5e04ad9822277d74b5bdfbbdfa
                0x00000000000b49a0                libcudart_static_d211a754ef80c6c38861197c159b6b43c845ba82
                0x00000000000b49a8                libcudart_static_b4d3bee9b2459abc2328a881b1010a922c9acbbf
                0x00000000000b49b0                libcudart_static_74e4cd0289f10ae2fee1d3387797c104ca731a7a
                0x00000000000b49b8                libcudart_static_7d7fb2f3021b636bb45752574640f25dc5929119
                0x00000000000b49c0                libcudart_static_434839f23f2fc68d36dc26b0f60bbe3188d278b7
                0x00000000000b49c8                libcudart_static_82df2ba4c3071a75e246bcc2ad203ce3efa0b2bb
                0x00000000000b49d0                libcudart_static_a8fa419ef48cba51fb10b9ab1d9687d8af3165bb
                0x00000000000b49d8                libcudart_static_37ac30d75fc5f497b808422628a4e3aad3b0256d
                0x00000000000b49e0                libcudart_static_3a4aab4c388aca3d344acbee636d479373530862
                0x00000000000b49e8                libcudart_static_0f0b6c1c1bbb7dd9d01987acb03b65e7eba0b6e4
                0x00000000000b49f0                libcudart_static_6314170fb365f83b4478d403da4e92aaabd7b7f4
                0x00000000000b49f8                libcudart_static_9163b97243c267659267a81b067a22a5312a8702
                0x00000000000b4a00                libcudart_static_ed423f0735ee79ba61b20f15a563a92d92b60705
                0x00000000000b4a08                libcudart_static_f5800d1c56dc48faa53164b13cecaf856c5bcfe1
                0x00000000000b4a10                libcudart_static_64a896789eb27556746172e3e2a290cb81f2f05f
                0x00000000000b4a18                libcudart_static_66c5256755b993446f66981100d0d8eb0cab1f3d
                0x00000000000b4a20                libcudart_static_bc3c8c76671ba96a90c2b40406f90a09a3662c38
                0x00000000000b4a28                libcudart_static_bb11bcb9fa124fa97d52e9d101ea9ad65b08c615
                0x00000000000b4a30                libcudart_static_401c8a282310b5232633532c6560e6dc9b393792
                0x00000000000b4a38                libcudart_static_c719e62e4b1e917a2f805f2b623b99fec2154471
                0x00000000000b4a40                libcudart_static_d74b55cba6daf80a2a591b2829e25a47c5a9dc7b
                0x00000000000b4a48                libcudart_static_f36e304ca0e98b14b083f27d9c6f7af9dae72bbe
                0x00000000000b4a50                libcudart_static_c1441665db9bf7e811c6b21e429c6127c7cc8042
                0x00000000000b4a58                libcudart_static_708c36ddc0cfa815593627144f937ed8c06f80bb
                0x00000000000b4a60                libcudart_static_7ee479703553d4ef0e4ec9e75660f2735ef05f2d
                0x00000000000b4a68                libcudart_static_338bef675f6308db23fe097c20ef0f6b03d5451b
                0x00000000000b4a70                libcudart_static_0bf3d2c989889e57dbfa87461fb50b5696dc9acf
                0x00000000000b4a78                libcudart_static_820c4146e6be52920978ee412c9b23f5d51be9f2
                0x00000000000b4a80                libcudart_static_8238632efda85e6fcf6700acaeb3ded48947dff3
                0x00000000000b4a88                libcudart_static_4ec5f3b0062ec1f355ed1039fe17731645c27a3a
                0x00000000000b4a90                libcudart_static_f1819747477cb907cef1d363b8da4790889879f2
                0x00000000000b4a98                libcudart_static_08bdde5ce7a4a4be05f1ccdb0f28b2359fae08ca
                0x00000000000b4aa0                libcudart_static_ec5c4c62b845511269352e97a1f67cafd89371d3
                0x00000000000b4aa8                libcudart_static_c4efd6aff85594546a10c2783dbc10bf3edea264
                0x00000000000b4ab0                libcudart_static_2176dfa970a56ab190a954e1ba17261e1382fc09
                0x00000000000b4ab8                libcudart_static_ef6af2a85b133d201583bc109f3a12bcc396019f
                0x00000000000b4ac0                libcudart_static_48ed908cc7a558630426412ff354a5e354e3ffc2
                0x00000000000b4ac8                libcudart_static_a741e9e2f487794f09fbb527e664d8f57568d249
                0x00000000000b4ad0                libcudart_static_9a71a3bb193424ba4707585366bd5ced7c6fe124
                0x00000000000b4ad8                libcudart_static_c2a9ed04a01a1a407d2dc2ad0e7703ddfd8e0196
                0x00000000000b4ae0                libcudart_static_586971a0921727e7ccd5058e3f30239f078202d7
                0x00000000000b4ae8                libcudart_static_73b9d13acad2e0fe33564251e668d4820ed22a3f
                0x00000000000b4af0                libcudart_static_93020d29aba686080092562889ab28561b2ee1ac
                0x00000000000b4af8                libcudart_static_d5e4a92c3180b523b7c4720feb8886eb226bfd30
                0x00000000000b4b00                libcudart_static_744517b5fcd97378d963a8afc8550704762717d4
                0x00000000000b4b08                libcudart_static_de11e3ecf14ed29683bb8bf64c4b6e910c0b0fe9
                0x00000000000b4b10                libcudart_static_58d799a3d496dbac8e7e99fcc390bbbaff1148ea
                0x00000000000b4b18                libcudart_static_df53bc7eff6241e692fb70907187ed8b90100d81
                0x00000000000b4b20                libcudart_static_aeaa074f490df94f8156444183693543d5692d1d
                0x00000000000b4b28                libcudart_static_e776c920cb291b3f515a185a3f31249c3adce36b
                0x00000000000b4b30                libcudart_static_bcfdef3751dbf404652843b76e462a4c6bfcc657
                0x00000000000b4b38                libcudart_static_ac1b3ad6938c9b1036a052484517887afde98165
                0x00000000000b4b40                libcudart_static_91efd25af4f44b77a1ac4204f945685469067f5a
                0x00000000000b4b48                libcudart_static_e9d28d4afdcd745451ed9e3cdb7317679f5ec614
                0x00000000000b4b50                libcudart_static_c2f0f64a89df532fe64932b398c3fac759cbbfd9
                0x00000000000b4b58                libcudart_static_2c7d3ea3ac1e2f209f6a254f0e0ad39425a99342
                0x00000000000b4b60                libcudart_static_6093a1c5b6072dabd88fb64f38ac5a732635f633
                0x00000000000b4b68                libcudart_static_fc61e7ce9df0a4df9eaebc5e89f5b6477a1ee650
                0x00000000000b4b70                libcudart_static_07c59698505ee7e1bcbd5e75c249c052990c8f96
                0x00000000000b4b78                libcudart_static_ef0f4939b45fb35d49c066566239d2c17e2f4726
                0x00000000000b4b80                libcudart_static_8529d23078b738553ea776455e7da52d15007952
                0x00000000000b4b88                libcudart_static_d635ae6df307cb136ed74c9c36b015154fd6b44b
                0x00000000000b4b90                libcudart_static_8f02e67ac8fdafae289bad03047abe66194ec132
                0x00000000000b4b98                libcudart_static_4cbd698c2fd3b01044174fec12db152331921a41
                0x00000000000b4ba0                libcudart_static_638999d2e2911e85ed61508b3b0229edac7efede
                0x00000000000b4ba8                libcudart_static_d0d5139ab70d04478e702b193e6062b1fbbdd34c
                0x00000000000b4bb0                libcudart_static_2744e29004231acd2e685f752fb9831729f69cc5
                0x00000000000b4bb8                libcudart_static_248d485c7c315d58919b498e9d7d414378627944
                0x00000000000b4bc0                libcudart_static_5596646eaf3229d10e79b566bc4b946eaf36a4dc
                0x00000000000b4bc8                libcudart_static_995bb4af5d83a00712e3337ac0b954b37f75231a
                0x00000000000b4bd0                libcudart_static_ba72401c3233f30bdeb88ec4c95b0e423b452426
                0x00000000000b4bd8                libcudart_static_fa7fdfb6820fb6e45349ea2c28835d8819575f51
                0x00000000000b4be0                libcudart_static_2f2520e70991001a3fd68d0c8a4657e5bb0f195b
                0x00000000000b4be8                libcudart_static_d6545746bc2e5fc0c9512e2c60f6f8da8f2bd96f
                0x00000000000b4bf0                libcudart_static_e29eeee1d10ea883f0dae7b635662518413ead85
                0x00000000000b4bf8                libcudart_static_08e0ad56c97ae6e1560e2d68dde6de85e0cfd204
                0x00000000000b4c00                libcudart_static_7f2e76dc1f6b52d0def0d25803cc5b41fba3230c
                0x00000000000b4c08                libcudart_static_9d3dec8d1a327d4ccb01fc12dd9790385a23727d
                0x00000000000b4c10                libcudart_static_bd3d5976b5f82a658c300867691ac678e597ebb6
                0x00000000000b4c18                libcudart_static_79a647882196b25bafe0526c3371b688b14939ce
                0x00000000000b4c20                libcudart_static_e4bd063e685f0a33c5107797abd34a3a20355162
                0x00000000000b4c28                libcudart_static_3166c3fff2c6b315f040a391b5ca062deca9516a
                0x00000000000b4c30                libcudart_static_bfb077a118236d70a7134907cd1b909534e802cd
                0x00000000000b4c38                libcudart_static_c0aa61210681047bdb124f9ac382b0d432d57a3f
                0x00000000000b4c40                libcudart_static_545945bb83fb2b6dcd7d4e2562b02eb0717a6a8a
                0x00000000000b4c48                libcudart_static_ff2297a714ff7fa9460a4dcd3892e983901c7470
                0x00000000000b4c50                libcudart_static_984e009caf418d4056573f41875884a6f6dc40e8
                0x00000000000b4c58                libcudart_static_5456b6e10def37c51b632a287f287671ad1bf2a8
                0x00000000000b4c60                libcudart_static_3f82581c790bfab6fa28a2dfc371ba37a5834877
                0x00000000000b4c68                libcudart_static_870e026b3f900ceb2aadc1825067a48e276a422d
                0x00000000000b4c70                libcudart_static_c6cd6333b50599c9d3ac8269d8be7b06c0d50f32
                0x00000000000b4c78                libcudart_static_88e2b0ac8e86ab27c8f465f529a1baba0c1a42e9
                0x00000000000b4c80                libcudart_static_d38b37974788f3411f9727552e8ed791daf5cfc3
                0x00000000000b4c88                libcudart_static_1bc97f8b6f379042c2f702ea08a88345e91e7075
                0x00000000000b4c90                libcudart_static_8325dfddecfc5925b840296e0c5db0f935fb052c
                0x00000000000b4c98                libcudart_static_542ac2519844968a98ec8f9751c6aa60f5ded6e0
                0x00000000000b4ca0                libcudart_static_fdd6d23d56e5db482a2fbea498154e158293e6a9
                0x00000000000b4ca8                libcudart_static_9bca8e334ded73c2ce8db2c3c061822fba6d1e20
                0x00000000000b4cb0                libcudart_static_0547f765f06655b8916c2b98f658862e88a576bd
                0x00000000000b4cb8                libcudart_static_b0f76220b2680edc976eb66d0f0af19179f7b76d
                0x00000000000b4cc0                libcudart_static_2724f1e87090c5b09718123e907ca16a774d6945
                0x00000000000b4cc8                libcudart_static_44c206076e57790aa78a278b1f750c56ad0175f1
                0x00000000000b4cd0                libcudart_static_be662661adb0f6b89ad4fd25a9bd9c1e0132f055
                0x00000000000b4cd8                libcudart_static_ffbfd63d88ed6d06552cee5c0e1e2c29008756ca
                0x00000000000b4ce0                libcudart_static_6fb5d2f48e0996921413bbd1a2cf9eda27f52870
                0x00000000000b4ce8                libcudart_static_30d5354d30d6cfe8e9a6deb4c491ed3ce531d4f0
                0x00000000000b4cf0                libcudart_static_3da70cf608c22926d97f3f2c42d451ccbc1fc059
                0x00000000000b4cf8                libcudart_static_5597efb1ef35de92b383d608a55308cb8deb3039
                0x00000000000b4d00                libcudart_static_f96abf0f74d3353e2fdbb0defbd3ab0bc2ba1af4
                0x00000000000b4d08                libcudart_static_ee403f42fe03ed6f223f0cf8ce5609339620cf48
                0x00000000000b4d10                libcudart_static_19edd5d3b20c2b1113b95e0e090116dbdf31b620
                0x00000000000b4d18                libcudart_static_30ad21ece6502ab7dae0ac84592a52aff4ef6a06
                0x00000000000b4d20                libcudart_static_fb2666b19e9c1ceb0340d2fd1834d54eb3179f44
                0x00000000000b4d28                libcudart_static_4b3aa12515928b10577f23d38c0d7f3e8a6372ba
                0x00000000000b4d30                libcudart_static_bcca4280a708fceeb789506a848ca2e99980cdae
                0x00000000000b4d38                libcudart_static_1ef783dfa4d8194fa09ea04fa10a82de534f4011
                0x00000000000b4d40                libcudart_static_12dad93a9f2e00cba14262ff75703f4b6f7a8a72
                0x00000000000b4d48                libcudart_static_f7674817358c183d1eee6f097af1a5818258fad4
                0x00000000000b4d50                libcudart_static_22d548e8e41ec6b6b55d0546e5ecd7c299d348bb
                0x00000000000b4d58                libcudart_static_fd4886cb910bd8bae1b1a252009100ee6bb63a9c
                0x00000000000b4d60                libcudart_static_ca4ee0190343af1db417a588cdadf169081d619d
                0x00000000000b4d68                libcudart_static_3e50acd201d8f9059dc206c2cee7e48bc4b140bd
                0x00000000000b4d70                libcudart_static_035404c5014137a73f5f26581caeefc8f44ff16f
                0x00000000000b4d78                libcudart_static_78bfb806a4778cd03be30f8ed456b28220cd108b
                0x00000000000b4d80                libcudart_static_b5f1b539f12bb326a23ee2d6a8d8582f349dad66
                0x00000000000b4d88                libcudart_static_6e7e873d3dc34ed5e688565326da3022341e806d
                0x00000000000b4d90                libcudart_static_1406334454f8610228f67747b93e616d20650465
                0x00000000000b4d98                libcudart_static_f8517d738881bcd363b66a4e4f0c9bfeaeb4e247
                0x00000000000b4da0                libcudart_static_72a7deb26b9d93a892a8defcd1e4f590c6d45432
                0x00000000000b4da8                libcudart_static_14cc6c46ee62b3322bf4b3fa9505d8192ae290db
                0x00000000000b4db0                libcudart_static_cc5b95512faadf955ad9164270f5713c4f38ab8e
                0x00000000000b4db8                libcudart_static_473e0afff4912ebc213921b03c30e3e3ce127485
                0x00000000000b4dc0                libcudart_static_3543f35ef3555a58f3d1b12a55a679e866b9a92d
                0x00000000000b4dc8                libcudart_static_9f10c3bc3d0df23b8abaa9cc7e0173a0b3d65123
                0x00000000000b4dd0                libcudart_static_e3840b81e9f2a2d2ae1bcdecb5df73cbcf25daa8
                0x00000000000b4dd8                libcudart_static_5ef64c5d0d2386d8edf33c8f7ebc60b9234c088a
                0x00000000000b4de0                libcudart_static_814cd1e6ff67fd053a9fde65abb8d68c7c3b52c4
                0x00000000000b4de8                libcudart_static_4be14a1989c61948a995e9bafa7d0b7096668db4
                0x00000000000b4df0                libcudart_static_9119c9c04ed8f0a4a2583730f18a755f12e97a65
                0x00000000000b4df8                libcudart_static_897fe7cee956c201c404ac152afd1e1fc44a727b
                0x00000000000b4e00                libcudart_static_aa29f87abcfdc654650132f98a6bd70cd2d0e2c1
                0x00000000000b4e08                libcudart_static_e9486a2c22c291b4d2871892dc30728b1c42d3fe
                0x00000000000b4e10                libcudart_static_fde48a01f5f50dcf2e1eb03e74649bb0294214f5
                0x00000000000b4e18                libcudart_static_3d6129badba1caada04870669d7eb84c98a36635
                0x00000000000b4e20                libcudart_static_e94240767fbfc6fba56353c33ea163ac10c17467
                0x00000000000b4e28                libcudart_static_05ea0140a178908c0213d799d226e6368dcaeda9
                0x00000000000b4e30                libcudart_static_a05bbe6bad19560d08008f4ac61d197dbc42498e
                0x00000000000b4e38                libcudart_static_b70eaee2b78cd71d23a8158d64dbd06208cdfbdc
                0x00000000000b4e40                libcudart_static_65f44142d785e42516988f48b2fed7ad45e66594
                0x00000000000b4e48                libcudart_static_c94e0e019374bc9171f6df0cfad1342905d5c3c4
                0x00000000000b4e50                libcudart_static_65c9b2f675b1d48901ec6a4103a378e44eb3b218
                0x00000000000b4e58                libcudart_static_3277e3c532cab3bd5f011c81db06401d88e84ba1
                0x00000000000b4e60                libcudart_static_7a2d6ab2b92d020da62595976fc211e8641eddbc
                0x00000000000b4e68                libcudart_static_b969d7e282668a058a5c20a92506774a4730c8cd
                0x00000000000b4e70                libcudart_static_0379434689b976745c4d1ea93050c213540a37b2
                0x00000000000b4e78                libcudart_static_c018d1689419120302a2213b5de0c1aa9c82d841
                0x00000000000b4e80                libcudart_static_4bdafab7255535b9bef70f25f4591a64a04f3d51
                0x00000000000b4e88                libcudart_static_a1626e76059c399173b57e04df48950ebed67b51
                0x00000000000b4e90                libcudart_static_5b7a35630d4c65854c15ca798c3d4934d8ffe2ac
                0x00000000000b4e98                libcudart_static_4cadfe33c3fac10be4bf3abe61987eb49b8ef511
                0x00000000000b4ea0                libcudart_static_2b9bac05b4c55409d93abced42d5a09b549a4b77
                0x00000000000b4ea8                libcudart_static_59c5a1883ca877d7842f1deb91a7b817ea6885e5
                0x00000000000b4eb0                libcudart_static_c491552f59d4db00e264e98dfd7a69c4b5aa8175
                0x00000000000b4eb8                libcudart_static_6fc955cfd8a9ab56a9fa84d71071b08e4eea3f8d
                0x00000000000b4ec0                libcudart_static_085d5c47aef95adadaa6362322b968aa43e0f698
                0x00000000000b4ec8                libcudart_static_ed0e6b45b8600e0f25ae608d500cae966261ae4e
                0x00000000000b4ed0                libcudart_static_e97b9a5f43b118b742c14e978ce2ad75ee6e9719
                0x00000000000b4ed8                libcudart_static_39b0be0e74d88add974088a01764f2bd647516ac
                0x00000000000b4ee0                libcudart_static_ba29835440e40bf74f6d1562f364447879a634e1
                0x00000000000b4ee8                libcudart_static_96471af58b794ea5e7c5ed3aafe373618613f41b
                0x00000000000b4ef0                libcudart_static_c0facc32ec288c36a8a0c62da4e20cf3a259cfbc
                0x00000000000b4ef8                libcudart_static_8ea05373af248ca972cc7e565b4d604f6cd23506
                0x00000000000b5c20                libcudart_static_bfa7fcfbe7e5f67fc03e58c5b7fd7de01d6545ef
 .bss           0x00000000000b5df0        0x0 /usr/lib/x86_64-linux-gnu/libc_nonshared.a(atexit.oS)
 .bss           0x00000000000b5df0        0x0 /usr/lib/gcc/x86_64-linux-gnu/11/crtendS.o
 .bss           0x00000000000b5df0        0x0 /usr/lib/gcc/x86_64-linux-gnu/11/../../../x86_64-linux-gnu/crtn.o
 *(COMMON)
                0x00000000000b5df0                . = ALIGN ((. != 0x0)?0x8:0x1)

.lbss
 *(.dynlbss)
 *(.lbss .lbss.* .gnu.linkonce.lb.*)
 *(LARGE_COMMON)
                0x00000000000b5df0                . = ALIGN (0x8)
                0x00000000000b5df0                . = SEGMENT_START ("ldata-segment", .)

.lrodata
 *(.lrodata .lrodata.* .gnu.linkonce.lr.*)

.ldata          0x00000000000b7df0        0x0
 *(.ldata .ldata.* .gnu.linkonce.l.*)
                0x00000000000b7df0                . = ALIGN ((. != 0x0)?0x8:0x1)
                0x00000000000b7df0                . = ALIGN (0x8)
                0x00000000000b5df0                _end = .
                [!provide]                        PROVIDE (end = .)
                0x00000000000b7df0                . = DATA_SEGMENT_END (.)

.stab
 *(.stab)

.stabstr
 *(.stabstr)

.stab.excl
 *(.stab.excl)

.stab.exclstr
 *(.stab.exclstr)

.stab.index
 *(.stab.index)

.stab.indexstr
 *(.stab.indexstr)

.comment        0x0000000000000000       0x57
 *(.comment)
 .comment       0x0000000000000000       0x2b /usr/lib/gcc/x86_64-linux-gnu/11/crtbeginS.o
                                         0x2c (size before relaxing)
 .comment       0x000000000000002b       0x2c /tmp/tmpxft_0000b254_00000000-7_asyncAPI_dlink.o
 .comment       0x000000000000002b       0x2c asyncAPI.o
 .comment       0x000000000000002b       0x2c /usr/local/cuda/bin/../targets/x86_64-linux/lib/libcudart_static.a(cudart_static.o)
                                        0x438 (size before relaxing)
 .comment       0x0000000000000057       0x2c /usr/lib/gcc/x86_64-linux-gnu/11/crtendS.o

.gnu.build.attributes
 *(.gnu.build.attributes .gnu.build.attributes.*)

.debug
 *(.debug)

.line
 *(.line)

.debug_srcinfo
 *(.debug_srcinfo)

.debug_sfnames
 *(.debug_sfnames)

.debug_aranges
 *(.debug_aranges)

.debug_pubnames
 *(.debug_pubnames)

.debug_info
 *(.debug_info .gnu.linkonce.wi.*)

.debug_abbrev
 *(.debug_abbrev)

.debug_line
 *(.debug_line .debug_line.* .debug_line_end)

.debug_frame
 *(.debug_frame)

.debug_str
 *(.debug_str)

.debug_loc
 *(.debug_loc)

.debug_macinfo
 *(.debug_macinfo)

.debug_weaknames
 *(.debug_weaknames)

.debug_funcnames
 *(.debug_funcnames)

.debug_typenames
 *(.debug_typenames)

.debug_varnames
 *(.debug_varnames)

.debug_pubtypes
 *(.debug_pubtypes)

.debug_ranges
 *(.debug_ranges)

.debug_addr
 *(.debug_addr)

.debug_line_str
 *(.debug_line_str)

.debug_loclists
 *(.debug_loclists)

.debug_macro
 *(.debug_macro)

.debug_names
 *(.debug_names)

.debug_rnglists
 *(.debug_rnglists)

.debug_str_offsets
 *(.debug_str_offsets)

.debug_sup
 *(.debug_sup)

.gnu.attributes
 *(.gnu.attributes)

/DISCARD/
 *(.note.GNU-stack)
 *(.gnu_debuglink)
 *(.gnu.lto_*)
OUTPUT(asyncAPI elf64-x86-64)
